(lp0
(lp1
S'TTCCATATTTTATGT'
p2
acnumpy.core.multiarray
scalar
p3
(cnumpy
dtype
p4
(S'f8'
p5
I0
I1
tp6
Rp7
(I3
S'<'
p8
NNNI-1
I-1
I0
tp9
bS'\x00\x00\x00\x00@\x127A'
p10
tp11
Rp12
aa(lp13
S'CCGATATTTTTATCT'
p14
ag3
(g7
S'\x00\x00\x00\x00\x08iAA'
p15
tp16
Rp17
aa(lp18
S'CATTCTTTTAAGACC'
p19
ag3
(g7
S'\x00\x00\x00\x00p(bA'
p20
tp21
Rp22
aa(lp23
S'CTCTTTTTTTAGAGC'
p24
ag3
(g7
S'\x8f\xe38\x8e\xa3\xe1\x16A'
p25
tp26
Rp27
aa(lp28
S'ACTACCGGTCCGGCC'
p29
ag3
(g7
S'\xab\xaa\xaa\xaaZqRA'
p30
tp31
Rp32
aa(lp33
S'ATTTAGCTTTTGCTA'
p34
ag3
(g7
S'\xe38\x8e\xe3\x18\x9b#A'
p35
tp36
Rp37
aa(lp38
S'TTAAATTGTTTCAAT'
p39
ag3
(g7
S'\x00\x00\x00\x00\xac$QA'
p40
tp41
Rp42
aa(lp43
S'AACAAGTTTTAACTT'
p44
ag3
(g7
S'\x00\x00\x00\x00\x10g?A'
p45
tp46
Rp47
aa(lp48
S'TTGGCATTTTTTGCC'
p49
ag3
(g7
S'\xee\r\xbb\x86\xa3\x01\x9c@'
p50
tp51
Rp52
aa(lp53
S'TTTCCAAACTGTTTA'
p54
ag3
(g7
S'\x00\x00\x00\x00\x9ablA'
p55
tp56
Rp57
aa(lp58
S'TTCGGGGTCCCCCTC'
p59
ag3
(g7
S'\xac\xaa\xaa\xaa\x82vGA'
p60
tp61
Rp62
aa(lp63
S'ACGACTGTCGCACTT'
p64
ag3
(g7
S'\x00\x00\x00\x00\x12\x1a`A'
p65
tp66
Rp67
aa(lp68
S'TTTGCTATTAGCCCT'
p69
ag3
(g7
S'\x00\x00\x00\x00\x00\xc3NA'
p70
tp71
Rp72
aa(lp73
S'ATAGTTTTTTCTATT'
p74
ag3
(g7
S'UUUUu;1A'
p75
tp76
Rp77
aa(lp78
S'CCTATTATAGTCATC'
p79
ag3
(g7
S'\x00\x00\x00\x00p(bA'
p80
tp81
Rp82
aa(lp83
S'TATCTTTTTGATAAA'
p84
ag3
(g7
S'UUUUE\x909A'
p85
tp86
Rp87
aa(lp88
S'TGAGTTTCTCATTAC'
p89
ag3
(g7
S'\x00\x00\x00\x00\xe8\xf6VA'
p90
tp91
Rp92
aa(lp93
S'CCATCGACTTTAGTC'
p94
ag3
(g7
S'\x00\x00\x00\x00\xcaxgA'
p95
tp96
Rp97
aa(lp98
S'TCGGTTACCGTCCAA'
p99
ag3
(g7
S'\x00\x00\x00\x00@\xe8]A'
p100
tp101
Rp102
aa(lp103
S'TCTGGTCTTGACCAC'
p104
ag3
(g7
S'\r<\xdd\x9a\x1f\x9e\xe6@'
p105
tp106
Rp107
aa(lp108
S'GTGCTTTGCACCTAC'
p109
ag3
(g7
S'\x01\x00\x00\x00\xa8\xa7NA'
p110
tp111
Rp112
aa(lp113
S'TTATGTTTTTTACAT'
p114
ag3
(g7
S'\x1d\xc7q\x1c\xc7a\xfe@'
p115
tp116
Rp117
aa(lp118
S'AACAATTTTTAAATC'
p119
ag3
(g7
S'\x00\x00\x00\x00^\x90fA'
p120
tp121
Rp122
aa(lp123
S'TTCTCTGAGATCTTT'
p124
ag3
(g7
S'\x00\x00\x00\x00\n\x9evA'
p125
tp126
Rp127
aa(lp128
S'ATGAATTTTATTCCC'
p129
ag3
(g7
S"\xaa\xaa\xaa\xaa\x8a\xc8'A"
p130
tp131
Rp132
aa(lp133
S'AATGAGTTTTTACTC'
p134
ag3
(g7
S'\xab\xaa\xaa\xaa*\xc6*A'
p135
tp136
Rp137
aa(lp138
S'ATTCCCCTTGGGGTT'
p139
ag3
(g7
S'\x00\x00\x00\x00\x80\xcc\x02A'
p140
tp141
Rp142
aa(lp143
S'TCGGTTTAACCCATT'
p144
ag3
(g7
S'\x00\x00\x00\x00\xe4\xa3]A'
p145
tp146
Rp147
aa(lp148
S'TCTTTTTTTTAAGAT'
p149
ag3
(g7
S':\x8e\xe38N\xdb\x1eA'
p150
tp151
Rp152
aa(lp153
S'CTTTATTTAAATTCC'
p154
ag3
(g7
S'\x00\x00\x00\x00\xfa\xcflA'
p155
tp156
Rp157
aa(lp158
S'ATCATTTTTTTGATA'
p159
ag3
(g7
S'\xaa\xaa\xaa\xaa*\xc6\nA'
p160
tp161
Rp162
aa(lp163
S'ACTGCGTTTTACGCC'
p164
ag3
(g7
S'\xa7\xc4P\xaa\x13\xa8\xbc@'
p165
tp166
Rp167
aa(lp168
S'ATGTCTTTTTTGACA'
p169
ag3
(g7
S'\xe5\xc2]}\x93\x84\xc7@'
p170
tp171
Rp172
aa(lp173
S'ACGTCATTGACTCAA'
p174
ag3
(g7
S'\x00\x00\x00\x00\xc4[\\A'
p175
tp176
Rp177
aa(lp178
S'TGGTTTTTTTACCAA'
p179
ag3
(g7
S'\xccJ\xa3GTL\xd3@'
p180
tp181
Rp182
aa(lp183
S'ATACATTGTATTTAC'
p184
ag3
(g7
S'\x00\x00\x00\x00\x04\xabdA'
p185
tp186
Rp187
aa(lp188
S'TAATGTTTTTACATT'
p189
ag3
(g7
S'\x07\x9en\xcd\x0f\xfb\xc8@'
p190
tp191
Rp192
aa(lp193
S'AATTACTGTAAACCT'
p194
ag3
(g7
S'\x01\x00\x00\x00\x89\xd9zA'
p195
tp196
Rp197
aa(lp198
S'TATCCGCGTTCGCGA'
p199
ag3
(g7
S'\xaa\xaa\xaa\xaa\xca\x823A'
p200
tp201
Rp202
aa(lp203
S'TCATTTTTTTATGAC'
p204
ag3
(g7
S'\x00\x00\x00\x00`\x84!A'
p205
tp206
Rp207
aa(lp208
S'TCATCCCACTGTGGT'
p209
ag3
(g7
S'\x00\x00\x00\x00\xec\x8aZA'
p210
tp211
Rp212
aa(lp213
S'CACTCTTTTTGAGTT'
p214
ag3
(g7
S'F\xca\xc0\xd3\xad\xb1\xcc@'
p215
tp216
Rp217
aa(lp218
S'AACGCAATTTGCCTC'
p219
ag3
(g7
S'\x00\x00\x00\x00\xd0\x95BA'
p220
tp221
Rp222
aa(lp223
S'CACTATGTTCATAAC'
p224
ag3
(g7
S'\x00\x00\x00\x00\xde\xdadA'
p225
tp226
Rp227
aa(lp228
S'TGTTATTTTTAACAA'
p229
ag3
(g7
S'\xf6\x12\xdaKh7\xc1@'
p230
tp231
Rp232
aa(lp233
S'ACCCCATTTTATGGC'
p234
ag3
(g7
S'UUUUm\xbfGA'
p235
tp236
Rp237
aa(lp238
S'TTGCGTTTTTTCGCA'
p239
ag3
(g7
S'ab\xfcql:j@'
p240
tp241
Rp242
aa(lp243
S'TGGTTTTTTTTACCA'
p244
ag3
(g7
S'\xa8 \xdb\x10P\xda\xe9@'
p245
tp246
Rp247
aa(lp248
S'TCACGACTTTGTCGT'
p249
ag3
(g7
S'\xb8\x14\xcdx\xe8Z\xa6@'
p250
tp251
Rp252
aa(lp253
S'AAACACTGTGTATTA'
p254
ag3
(g7
S'\x00\x00\x00\x00\xdcQ]A'
p255
tp256
Rp257
aa(lp258
S'GGCCTTTTGGCCCAA'
p259
ag3
(g7
S'\xb4\x97\xd0^\xc2\xcf\x03A'
p260
tp261
Rp262
aa(lp263
S'CTCCTAGCTTGCTAT'
p264
ag3
(g7
S'\x00\x00\x00\x00\xca\rdA'
p265
tp266
Rp267
aa(lp268
S'ATAGTTTCTATCCAC'
p269
ag3
(g7
S'\x00\x00\x00\x00*{dA'
p270
tp271
Rp272
aa(lp273
S'CCAATTTCCTGGAAC'
p274
ag3
(g7
S'\xaa\xaa\xaa\xaa:\xd5>A'
p275
tp276
Rp277
aa(lp278
S'TCTAGAGTTTTCTCT'
p279
ag3
(g7
S'UUUU\xe5LBA'
p280
tp281
Rp282
aa(lp283
S'AATACTGTTTTAACA'
p284
ag3
(g7
S'\x00\x00\x00\x00H\x8e`A'
p285
tp286
Rp287
aa(lp288
S'GGCGTTTTTCGCCCC'
p289
ag3
(g7
S'\x18\x85\x8d\xb5\xf3\x1a\xa7@'
p290
tp291
Rp292
aa(lp293
S'TAGTGTTTTTTACAC'
p294
ag3
(g7
S'&\xb4\x97\xd0^\x00\xe4@'
p295
tp296
Rp297
aa(lp298
S'CGTGATTTTCACTCA'
p299
ag3
(g7
S'\x00\x00\x00\x00\xe093A'
p300
tp301
Rp302
aa(lp303
S'GGATTTATCCACCCT'
p304
ag3
(g7
S'\x00\x00\x00\x006ahA'
p305
tp306
Rp307
aa(lp308
S'GTAATTTTACATCCA'
p309
ag3
(g7
S'\x01\x00\x00\x00\x16\xaecA'
p310
tp311
Rp312
aa(lp313
S'ACGCCCTTTGGGCCC'
p314
ag3
(g7
S'\n\xed%\xb4\x97\xcc\x07A'
p315
tp316
Rp317
aa(lp318
S'ATTCCTTCCTGGAAA'
p319
ag3
(g7
S'Y\xa4\x0c<\xdd\x9a\xe5@'
p320
tp321
Rp322
aa(lp323
S'GGTATTTTTTACCCT'
p324
ag3
(g7
S'\xab\xaa\xaa\xaa\xea_\x11A'
p325
tp326
Rp327
aa(lp328
S'CTAATTTTTAGATAA'
p329
ag3
(g7
S'\x00\x00\x00\x00\xf4\x06TA'
p330
tp331
Rp332
aa(lp333
S'CCTTCAGTTCTGAAT'
p334
ag3
(g7
S'\x00\x00\x00\x00\xc0\xc78A'
p335
tp336
Rp337
aa(lp338
S'ACATCTGCTTTAGCA'
p339
ag3
(g7
S'\x00\x00\x00\x00\x08\x15_A'
p340
tp341
Rp342
aa(lp343
S'TCCGCGCTTTTGCGC'
p344
ag3
(g7
S'\x8e\xe38\x8e\xa3\x0b\x10A'
p345
tp346
Rp347
aa(lp348
S'TTATTTTTAATATAT'
p349
ag3
(g7
S'\x00\x00\x00\x00Z\xd2iA'
p350
tp351
Rp352
aa(lp353
S'CACGCTCTGAGCCTC'
p354
ag3
(g7
S'\xaa\xaa\xaa\xaa\x82vGA'
p355
tp356
Rp357
aa(lp358
S'AGGCTTTTTTGCCTA'
p359
ag3
(g7
S'\xda\xe2\nI\xb0\x9a\x92@'
p360
tp361
Rp362
aa(lp363
S'TACATCGTCGATCTT'
p364
ag3
(g7
S'\x00\x00\x00\x00:\x8ahA'
p365
tp366
Rp367
aa(lp368
S'TCTCACATTGTGTCC'
p369
ag3
(g7
S'\xff\xff\xff\xff\xa7<[A'
p370
tp371
Rp372
aa(lp373
S'TTATATTTATAATTC'
p374
ag3
(g7
S'\x00\x00\x00\x00\xa0U^A'
p375
tp376
Rp377
aa(lp378
S'TCACTAATTATTATA'
p379
ag3
(g7
S'\x00\x00\x00\x00\xb2X}A'
p380
tp381
Rp382
aa(lp383
S'AAAAGGTTTACCTCC'
p384
ag3
(g7
S'\x00\x00\x00\x00\xb0#XA'
p385
tp386
Rp387
aa(lp388
S'AGCAATTTTTTTTGC'
p389
ag3
(g7
S'\x0b\xb2\r\x01\xc5g\xc7@'
p390
tp391
Rp392
aa(lp393
S'CTCTGCTTGCAGCCA'
p394
ag3
(g7
S'\xaa\xaa\xaa\xaa2\xd7@A'
p395
tp396
Rp397
aa(lp398
S'CCAGTTTTTTACTGA'
p399
ag3
(g7
S'\x0f]ON\x89A\xaa@'
p400
tp401
Rp402
aa(lp403
S'TTTTTCCATTTTGGA'
p404
ag3
(g7
S'\x00\x00\x00\x00p\xfeXA'
p405
tp406
Rp407
aa(lp408
S'CATTTCTGAAATAAT'
p409
ag3
(g7
S'UUUU\xadOJA'
p410
tp411
Rp412
aa(lp413
S'AATGCTTTTGCATTA'
p414
ag3
(g7
S'\xe7\xb5\x8a\xfd\xdeM\x92@'
p415
tp416
Rp417
aa(lp418
S'CCATTTTTTATGGAA'
p419
ag3
(g7
S'C{\t\xed%\n\xe7@'
p420
tp421
Rp422
aa(lp423
S'ATTACTCCTTTAGGA'
p424
ag3
(g7
S'\x01\x00\x00\x00\x80\r]A'
p425
tp426
Rp427
aa(lp428
S'CCACTAGTTTCTAGT'
p429
ag3
(g7
S'\xe38\x8e\xe38$\x0fA'
p430
tp431
Rp432
aa(lp433
S'CCTAAGTTTTTACTT'
p434
ag3
(g7
S'\x00\x00\x00\x00\xf0HGA'
p435
tp436
Rp437
aa(lp438
S'ATACCTGGTAAATCC'
p439
ag3
(g7
S'\x01\x00\x00\x00\x08?hA'
p440
tp441
Rp442
aa(lp443
S'TCCCACATTGTGCTA'
p444
ag3
(g7
S'\x00\x00\x00\x00\xbct_A'
p445
tp446
Rp447
aa(lp448
S'CCCATTTTTTTTGGG'
p449
ag3
(g7
S'\xab\xaa\xaa\xaa\xaa\x10\xe9@'
p450
tp451
Rp452
aa(lp453
S'TAACGAGTTCTCGTA'
p454
ag3
(g7
S'\xcf\x8e4\x9dc\xe7\x90@'
p455
tp456
Rp457
aa(lp458
S'AACGTTTTTTTAACG'
p459
ag3
(g7
S'X\xa4\x0c<\xdd\x9a\x95@'
p460
tp461
Rp462
aa(lp463
S'CAATAACAGTTCTGT'
p464
ag3
(g7
S'\x00\x00\x00\x00\x12[jA'
p465
tp466
Rp467
aa(lp468
S'TCAATTTTTTTTTGA'
p469
ag3
(g7
S'_B{\t\xcd6,A'
p470
tp471
Rp472
aa(lp473
S'ATAGTGGTTTCCACC'
p474
ag3
(g7
S"\xab\xaa\xaa\xaa*['A"
p475
tp476
Rp477
aa(lp478
S'CCCCACTTTTTAAGT'
p479
ag3
(g7
S'\x00\x00\x00\x00\x16CpA'
p480
tp481
Rp482
aa(lp483
S'ACACTTAGTGATCAT'
p484
ag3
(g7
S'\x01\x00\x00\x00\xd0\x00VA'
p485
tp486
Rp487
aa(lp488
S'TCCTACTTTTAGTAC'
p489
ag3
(g7
S'\x00\x00\x00\x00\xf0HWA'
p490
tp491
Rp492
aa(lp493
S'TATATAGTTCTATCT'
p494
ag3
(g7
S'\x00\x00\x00\x00\x18N\\A'
p495
tp496
Rp497
aa(lp498
S'TGCACTTTTGTGCCA'
p499
ag3
(g7
S'\x94\xbc\xbf\x0e\xc6\xe4\xca@'
p500
tp501
Rp502
aa(lp503
S'ATACTTTTGTATTTA'
p504
ag3
(g7
S'\xff\xff\xff\xff\x9f\xeaZA'
p505
tp506
Rp507
aa.