(lp0
(lp1
S'AACTCCGAGACCAAACTGAACCCTG'
p2
acnumpy.core.multiarray
scalar
p3
(cnumpy
dtype
p4
(S'f8'
p5
I0
I1
tp6
Rp7
(I3
S'<'
p8
NNNI-1
I-1
I0
tp9
bS'\x00\x00\x00@x#\x90A'
p10
tp11
Rp12
aa(lp13
S'TAAGCGTATTGAGCCAGCGAGTAAG'
p14
ag3
(g7
S'\x00\x00\x00\x00*\xbc~A'
p15
tp16
Rp17
aa(lp18
S'CAGGCCGAATGTTAAGCATTCCGAT'
p19
ag3
(g7
S'\x00\x00\x00\x00\xd6\x1daA'
p20
tp21
Rp22
aa(lp23
S'CTCGCGCATGACACACTATACTGTA'
p24
ag3
(g7
S'\x00\x00\x00\x00\xf0\xb3zA'
p25
tp26
Rp27
aa(lp28
S'GCTGATCTTGCCCTTGAGGAGAAGT'
p29
ag3
(g7
S'\x00\x00\x00\x00\xe4bcA'
p30
tp31
Rp32
aa(lp33
S'GTCCAACTTGGTACGCTTCAACTGG'
p34
ag3
(g7
S'UUUUMwfA'
p35
tp36
Rp37
aa(lp38
S'TATTAATTCCATCCCGCGCCTTGTA'
p39
ag3
(g7
S'\x01\x00\x00\x80]>\x8bA'
p40
tp41
Rp42
aa(lp43
S'TCGGGGGACTGTTTACTCCGATTTA'
p44
ag3
(g7
S'\xc6q\x1c\xc7\xb1\xfe0A'
p45
tp46
Rp47
aa(lp48
S'ATGCGCGTCTCTCACCAGATAAGAA'
p49
ag3
(g7
S'\x00\x00\x00\x00Ab{A'
p50
tp51
Rp52
aa(lp53
S'CTGTTCCATGCAGTGAAAACCGTCT'
p54
ag3
(g7
S'\x00\x00\x00\x00bNcA'
p55
tp56
Rp57
aa(lp58
S'TATTTACCGGGGCTTCTAAAACGCC'
p59
ag3
(g7
S'\xff\xff\xff\xff\x05K}A'
p60
tp61
Rp62
aa(lp63
S'TGACGTCAACAGTTCGATCCGTATG'
p64
ag3
(g7
S'\x00\x00\x00\x00\xca\rdA'
p65
tp66
Rp67
aa(lp68
S'CATCATTCGAGTTCCATGCGATGGA'
p69
ag3
(g7
S'\x00\x00\x00\x00\xde\x1boA'
p70
tp71
Rp72
aa(lp73
S'GATTGCGCGTTAATCGTTGAAAGGA'
p74
ag3
(g7
S'\xff\xff\xff\xff_\xef\x84A'
p75
tp76
Rp77
aa(lp78
S'CTCAAGGAAACGTGATCTGACTCGC'
p79
ag3
(g7
S'\x00\x00\x00\x00U\xeeqA'
p80
tp81
Rp82
aa(lp83
S'CTGTAAACCAGTGAGTGACGGAGGT'
p84
ag3
(g7
S'\x00\x00\x00\x00\xf1-xA'
p85
tp86
Rp87
aa(lp88
S'CTGCAACTATCCCAGACTCCTCGTC'
p89
ag3
(g7
S'\x00\x00\x00\x00\x85o\x80A'
p90
tp91
Rp92
aa(lp93
S'AAAGCTGCTGAATTACGTGTTCGGA'
p94
ag3
(g7
S"\x01\x00\x00\x00t'yA"
p95
tp96
Rp97
aa(lp98
S'GGGTTGCTGAACAGACCCTAGTCAG'
p99
ag3
(g7
S'\x00\x00\x00\x00\x04\xabTA'
p100
tp101
Rp102
aa(lp103
S'AATGGCCCTGACTAACATAGCGCTT'
p104
ag3
(g7
S'\xff\xff\xff\xff\xd7\xbdYA'
p105
tp106
Rp107
aa(lp108
S'TCTCCTTAGATCACCGCCGGAAATA'
p109
ag3
(g7
S'\x00\x00\x00\x00\x8fayA'
p110
tp111
Rp112
aa(lp113
S'ATCACTGGTAACGAACGCTGAATCG'
p114
ag3
(g7
S'\x00\x00\x00\x00\x82+qA'
p115
tp116
Rp117
aa(lp118
S'TCGGTCGTAATCGCGGATACTTTTA'
p119
ag3
(g7
S'\x00\x00\x00\x00\x10g\x7fA'
p120
tp121
Rp122
aa(lp123
S'AGGTGTCCATATACGGCACTATGCC'
p124
ag3
(g7
S'\x00\x00\x00\x00\x0e\xc7fA'
p125
tp126
Rp127
aa(lp128
S'AAAGGACTCTAGCCCCAAGAAGGGG'
p129
ag3
(g7
S'\x00\x00\x00\x00V\x14mA'
p130
tp131
Rp132
aa(lp133
S'TAGAGGTCTGAAGCATGTTATGCGC'
p134
ag3
(g7
S'\x00\x00\x00\x00h\xd6aA'
p135
tp136
Rp137
aa(lp138
S'CCGTAGTAGGCGTCGGGTATATTGA'
p139
ag3
(g7
S'\x00\x00\x00\x00\xec\xf5}A'
p140
tp141
Rp142
aa(lp143
S'CATCAGTTGTGAGCCGTTTAGCAGA'
p144
ag3
(g7
S'\x00\x00\x00\x00\x06\xe0iA'
p145
tp146
Rp147
aa(lp148
S'TAAGCTAACAACCCTCCGGATCAGG'
p149
ag3
(g7
S'\x00\x00\x00\x00.\x0f\x88A'
p150
tp151
Rp152
aa(lp153
S'CGACGAGCTTGACCGCAACTAATAA'
p154
ag3
(g7
S'\x00\x00\x00\x00\x9a!\x82A'
p155
tp156
Rp157
aa(lp158
S'CTCACACCTAGCAAGGACTGGAACC'
p159
ag3
(g7
S'\x00\x00\x00\x00X\x9dtA'
p160
tp161
Rp162
aa(lp163
S'GGCATTTTATATGTAGGGCTCGGCG'
p164
ag3
(g7
S'\xff\xff\xff\xffMWyA'
p165
tp166
Rp167
aa(lp168
S'GTACGACGTGAACAAACTGCTCCAT'
p169
ag3
(g7
S'\x00\x00\x00\x00\xe0\xa4vA'
p170
tp171
Rp172
aa(lp173
S'CAAAGCCGGAGCTACATAGAGAGGG'
p174
ag3
(g7
S'\x00\x00\x00\x00\xad\xdf\x88A'
p175
tp176
Rp177
aa(lp178
S'GCGTACTACGGGCGGGTTAAATTAG'
p179
ag3
(g7
S'\x00\x00\x00\x00\xb6\x81\x8dA'
p180
tp181
Rp182
aa(lp183
S'CTGGCATTAGAATACGCCGACCAAG'
p184
ag3
(g7
S'\x00\x00\x00\x00(\xf2lA'
p185
tp186
Rp187
aa(lp188
S'ATGCTTCTCGACACAAGCAACATGA'
p189
ag3
(g7
S'\x00\x00\x00\x00T\taA'
p190
tp191
Rp192
aa(lp193
S'CTGTAGGGTAAGCCAGCTCGAGTTA'
p194
ag3
(g7
S'\x00\x00\x00\x00\xe2\xd9{A'
p195
tp196
Rp197
aa(lp198
S'GAGGAGCGTTGTGACACCAAATCTC'
p199
ag3
(g7
S'\x00\x00\x00\x00\xf4\x9b`A'
p200
tp201
Rp202
aa(lp203
S'GGAGGGCCGATATGATTCACCGAAT'
p204
ag3
(g7
S'\x00\x00\x00\x00/\xf4xA'
p205
tp206
Rp207
aa(lp208
S'TCACCACCGTTATGATGGGAACAGA'
p209
ag3
(g7
S'\x00\x00\x00\x008UsA'
p210
tp211
Rp212
aa(lp213
S'GTTCCTGACAGCGTTTCCGAACTTT'
p214
ag3
(g7
S'UUUU=hbA'
p215
tp216
Rp217
aa(lp218
S'GGATCGCGATAGTCTCCCGAGTATC'
p219
ag3
(g7
S'\x00\x00\x00\x00\xe4\xa3]A'
p220
tp221
Rp222
aa(lp223
S'TAGGCTATAGTCAGGTGCGCAAGAT'
p224
ag3
(g7
S"\x00\x00\x00\x00'\r|A"
p225
tp226
Rp227
aa(lp228
S'CCCGGTAAGCCACCCATAGAATCAG'
p229
ag3
(g7
S'\x00\x00\x00\x80\x85\x02\x86A'
p230
tp231
Rp232
aa(lp233
S'CCTTTGGACCATTCAACTGAGCGAC'
p234
ag3
(g7
S'\x00\x00\x00\x00\x10\xbb\x81A'
p235
tp236
Rp237
aa(lp238
S'TAACAGCTTTGCTAGAGTGTTGGCC'
p239
ag3
(g7
S'\x00\x00\x00\x00\xf2<bA'
p240
tp241
Rp242
aa(lp243
S'GTTTGATCAGTCGGGGATGTGGACT'
p244
ag3
(g7
S'\xff\xff\xff\xffY\xfcrA'
p245
tp246
Rp247
aa(lp248
S'CAGCACGACACTGGGTCCATAAATG'
p249
ag3
(g7
S'\x01\x00\x00\x00\x9bqvA'
p250
tp251
Rp252
aa(lp253
S'ACATACGTTAACTGTCGCTCGTCAG'
p254
ag3
(g7
S'\x00\x00\x00\x00\xfadiA'
p255
tp256
Rp257
aa(lp258
S'TCTGCTTCATATGAAGCAAGCGTCA'
p259
ag3
(g7
S'\x00\x00\x00\x00\x84\xcbiA'
p260
tp261
Rp262
aa(lp263
S'GGTGTGCGCAACTAGAACCATTCAT'
p264
ag3
(g7
S'UUUU\x11Q^A'
p265
tp266
Rp267
aa(lp268
S'CCGGGCTTAGATCTAGCAGAATCGA'
p269
ag3
(g7
S'\x00\x00\x00\x00fMjA'
p270
tp271
Rp272
aa(lp273
S'CTTACTATCGGGCGTGGACTCTGAG'
p274
ag3
(g7
S'\x00\x00\x00\x80R=\x88A'
p275
tp276
Rp277
aa(lp278
S'AAGCCACTCCTGAGGAACATTGCTA'
p279
ag3
(g7
S'VUUU]EPA'
p280
tp281
Rp282
aa(lp283
S'CTCTCAACTACCCGATCTAGCGCTA'
p284
ag3
(g7
S'\x01\x00\x00\x00"j\x8eA'
p285
tp286
Rp287
aa(lp288
S'TAGCGTCATTCCTAAGGAGATCCGG'
p289
ag3
(g7
S'\x00\x00\x00\x00\x14\x90_A'
p290
tp291
Rp292
aa(lp293
S'TAAGTAATTGGCACGAGTGTAGGCG'
p294
ag3
(g7
S'\x00\x00\x00\x00\xeb\xcfrA'
p295
tp296
Rp297
aa(lp298
S'GTGTTTCGAGTCACCAGACAGTTCG'
p299
ag3
(g7
S'\x00\x00\x00\x00\xcf\xf1{A'
p300
tp301
Rp302
aa(lp303
S'TAGAGGTTATGGGGTTTGGCTCGAG'
p304
ag3
(g7
S'\x00\x00\x00\x00\x08?hA'
p305
tp306
Rp307
aa(lp308
S'GCAAACCTCGAAAGAGAAGCTGGAC'
p309
ag3
(g7
S'\x00\x00\x00\x00\x92{\x7fA'
p310
tp311
Rp312
aa(lp313
S'AACAGCCCTTATAGTCGCGATCAGT'
p314
ag3
(g7
S'\x00\x00\x00\x00\x8dm~A'
p315
tp316
Rp317
aa(lp318
S'GCGACTCCTTGTTCGTTCAGGTAAC'
p319
ag3
(g7
S'\x00\x00\x00\x00\x88_]A'
p320
tp321
Rp322
aa(lp323
S'ATCGATAGGCTGTCGAAGCTGTCAA'
p324
ag3
(g7
S'\x00\x00\x00\x00r3nA'
p325
tp326
Rp327
aa(lp328
S'ACAGGATGTGGCAATTCCTCTTCCA'
p329
ag3
(g7
S'\xe48\x8e\xe3\x18\x9b3A'
p330
tp331
Rp332
aa(lp333
S'GGCCAAGGAAGGGCATACTGAGTTT'
p334
ag3
(g7
S'\x00\x00\x00\x00\xae\xeerA'
p335
tp336
Rp337
aa(lp338
S'CAACCATTTTGCTTCGCCTGCAATT'
p339
ag3
(g7
S'\x01\x00\x00\x00l@lA'
p340
tp341
Rp342
aa(lp343
S'CGGATCATTAGCACCCTGTCACCAT'
p344
ag3
(g7
S'\x00\x00\x00\x009\xcf\x80A'
p345
tp346
Rp347
aa(lp348
S'ATGACCACGACTTACACGGTCTCTC'
p349
ag3
(g7
S'\x1c\xc7q\x1c\x87\xd1;A'
p350
tp351
Rp352
aa(lp353
S'CCGAACCCGAGAATGATCTAGCCTA'
p354
ag3
(g7
S'\x00\x00\x00\x00.z{A'
p355
tp356
Rp357
aa(lp358
S'AGTCACTCTCTGGAATTCAGTCGCA'
p359
ag3
(g7
S'\x00\x00\x00\x80\xf9f\x80A'
p360
tp361
Rp362
aa(lp363
S'CGTACACTCCTTGGGTATCCACGAG'
p364
ag3
(g7
S'\x00\x00\x00\x00\xee\x13bA'
p365
tp366
Rp367
aa(lp368
S'ACGGGCATATGTCTCCTACTAAGCG'
p369
ag3
(g7
S'\x00\x00\x00\x00\xab?pA'
p370
tp371
Rp372
aa(lp373
S'CGGGACTCTCAAAGGGTACACGTAG'
p374
ag3
(g7
S'\x01\x00\x00\x00\xe8\xf6vA'
p375
tp376
Rp377
aa(lp378
S'AAGAGCGAGCTCATAAGTCCTCGAC'
p379
ag3
(g7
S'\xaa\xaa\xaa\xaa\x92\x85KA'
p380
tp381
Rp382
aa(lp383
S'GAGTCCGATACTAGCTAGGACGTGC'
p384
ag3
(g7
S'\xff\xff\xff\xffG\xf9SA'
p385
tp386
Rp387
aa(lp388
S'ATGATTCGTTCTTGGGGTAGCGAGA'
p389
ag3
(g7
S'\xff\xff\xff\xff\xf4\x80qA'
p390
tp391
Rp392
aa(lp393
S'CGCAGCTATGTGTGTACACAATGGA'
p394
ag3
(g7
S'\x00\x00\x00\x00\x82\x96tA'
p395
tp396
Rp397
aa(lp398
S'TGCTAGGCCAGGACTACCTACACAT'
p399
ag3
(g7
S'\x00\x00\x00\x00H\x8epA'
p400
tp401
Rp402
aa(lp403
S'CGGTATCGTCCTACTGTGGCTTTCT'
p404
ag3
(g7
S'\x00\x00\x00\x80%*\x82A'
p405
tp406
Rp407
aa(lp408
S'CACAATTACAGGCTTGCGAATGCTG'
p409
ag3
(g7
S'\x00\x00\x00\x00D\xd0sA'
p410
tp411
Rp412
aa(lp413
S'ATGAGGGGGACTTGAAAACAGCCAG'
p414
ag3
(g7
S'\x00\x00\x00\x00\x98\x98zA'
p415
tp416
Rp417
aa(lp418
S'GGGTTTGGTTGACTGTGCTATGTCG'
p419
ag3
(g7
S'\xff\xff\xff\x7fE\xb3\x8dA'
p420
tp421
Rp422
aa(lp423
S'TCGTTTTTAGTGCTGAACCCCTTCG'
p424
ag3
(g7
S'\x00\x00\x00\x00}^zA'
p425
tp426
Rp427
aa(lp428
S'GTGACGTGAAAACCACAATTCGTCG'
p429
ag3
(g7
S':\x8e\xe38\x0e\xb6\x1fA'
p430
tp431
Rp432
aa(lp433
S'ACATTTGAACAGAGCGGCAACAGAA'
p434
ag3
(g7
S'\x00\x00\x00\x80E\x07\x80A'
p435
tp436
Rp437
aa(lp438
S'GCCACTCACCTTCGCATTTACTTCA'
p439
ag3
(g7
S'\x00\x00\x00\xc0&#\x94A'
p440
tp441
Rp442
aa(lp443
S'GCATTAGGTCGGAACTTTGTGTCGA'
p444
ag3
(g7
S'\x00\x00\x00\x00fwsA'
p445
tp446
Rp447
aa(lp448
S'ATCAACGTACACCGACTCCCGTTAT'
p449
ag3
(g7
S'\xaa\xaa\xaa\xaan>SA'
p450
tp451
Rp452
aa(lp453
S'ATTCGAGGCTTGTTGGATAGAGCCC'
p454
ag3
(g7
S'\x00\x00\x00\x00\x00\x17aA'
p455
tp456
Rp457
aa(lp458
S'AGTAAGCAAGACATGGCTGCCAAAC'
p459
ag3
(g7
S'\x00\x00\x00\x00\x12\x85sA'
p460
tp461
Rp462
aa(lp463
S'TGCTGTCTTAACCAGGAGTCGTACC'
p464
ag3
(g7
S'\x00\x00\x00\x00,EvA'
p465
tp466
Rp467
aa(lp468
S'AGTGCACCTTGAGCTCCTCCAATTT'
p469
ag3
(g7
S'\x00\x00\x00\x00\x98\x03~A'
p470
tp471
Rp472
aa(lp473
S'GAGGGCCTTAGAAAGTTGCGACAAC'
p474
ag3
(g7
S'\x00\x00\x00\x00\x1cw|A'
p475
tp476
Rp477
aa(lp478
S'CCTTCCCCCCCCAGCAATATGATTG'
p479
ag3
(g7
S'\x00\x00\x00\x80\xa9s\x97A'
p480
tp481
Rp482
aa(lp483
S'GCTAGCACGTAGACACGGACCTATT'
p484
ag3
(g7
S'\x00\x00\x00\x007FyA'
p485
tp486
Rp487
aa(lp488
S'TGCTAAAGCAGAGTTAGGGATCGGG'
p489
ag3
(g7
S'\xff\xff\xff\x7f\x1c\x9f\x8eA'
p490
tp491
Rp492
aa(lp493
S'CGCGGTTACTAGGTTAACACGTTCA'
p494
ag3
(g7
S'\xff\xff\xff\xffS\xdfWA'
p495
tp496
Rp497
aa(lp498
S'AAAGGGACACGCAGGTTAGTACCAC'
p499
ag3
(g7
S'\x00\x00\x00\x00\xf5VxA'
p500
tp501
Rp502
aa(lp503
S'GGGAAGATGGGATTACACCATGCCA'
p504
ag3
(g7
S'\x00\x00\x00\x00\x1e\x95`A'
p505
tp506
Rp507
aa(lp508
S'AGAATAGACCTGGACACGTAAGGCG'
p509
ag3
(g7
S'\x01\x00\x00\x00\xe2D\x7fA'
p510
tp511
Rp512
aa(lp513
S'GCTAGCGGAAGTGAAATACGAGCTC'
p514
ag3
(g7
S'\xab\xaa\xaa\xaa\xea5HA'
p515
tp516
Rp517
aa(lp518
S'TAGAAGAGGAGCCAGGCACATTCTC'
p519
ag3
(g7
S'\xaa\xaa\xaa\xaaZ\xdc5A'
p520
tp521
Rp522
aa(lp523
S'CGGCGGTCGAATAGTGACTAAGTTG'
p524
ag3
(g7
S'\x00\x00\x00\x00%\xae}A'
p525
tp526
Rp527
aa(lp528
S'GTAAAAGCGCTTGGGATTCTCACCC'
p529
ag3
(g7
S'\x00\x00\x00\x00\x16\x19wA'
p530
tp531
Rp532
aa(lp533
S'ACGGCTTTCTCATCCGGTAATTTCG'
p534
ag3
(g7
S'\x00\x00\x00\x00\xe3\xe8uA'
p535
tp536
Rp537
aa(lp538
S'GCCGAGAAGGTGTGACTGAGTACTA'
p539
ag3
(g7
S'\x01\x00\x00\x00\t\x8f|A'
p540
tp541
Rp542
aa(lp543
S'ATCGGGTTTGGTCAGGGACTTGTTA'
p544
ag3
(g7
S'\x00\x00\x00\x80\x8d\xe9\x92A'
p545
tp546
Rp547
aa(lp548
S'CTAGAGACCCACAGCAGCAATCTGA'
p549
ag3
(g7
S'\x00\x00\x00\x00\xe4bsA'
p550
tp551
Rp552
aa(lp553
S'GGCTCGAGAAGTAGTACTGTAGCGT'
p554
ag3
(g7
S'VUUU%\xb3[A'
p555
tp556
Rp557
aa(lp558
S'AATCTTGGCTAACTGTAGCACGGGT'
p559
ag3
(g7
S'\x00\x00\x00\x00\xda\x1cxA'
p560
tp561
Rp562
aa(lp563
S'CGCCCGTGTTACGATTCACGTATAA'
p564
ag3
(g7
S'\x00\x00\x00\x00BqeA'
p565
tp566
Rp567
aa(lp568
S'ACAGATCCCACCTTCTACGGAATGC'
p569
ag3
(g7
S'\x00\x00\x00\x00\x9c\xc1jA'
p570
tp571
Rp572
aa(lp573
S'GCCTCGTACCTATGACACAGGTTCA'
p574
ag3
(g7
S'\x00\x00\x00\x00H:nA'
p575
tp576
Rp577
aa(lp578
S'GGCGAAATCAACACTTTACTGCCCT'
p579
ag3
(g7
S'\x00\x00\x00\x00\x00\xc3>A'
p580
tp581
Rp582
aa(lp583
S'ACCCCACCAACTCACTGACCATTTA'
p584
ag3
(g7
S'\x00\x00\x00\x80\xc2\xe3\x95A'
p585
tp586
Rp587
aa(lp588
S'AGAAACGGGCAAACGAGTGAAACTT'
p589
ag3
(g7
S'\x00\x00\x00\x00\xc2P\x80A'
p590
tp591
Rp592
aa(lp593
S'GCAAGGTACGCTAGTCCATGGGAAT'
p594
ag3
(g7
S'\x00\x00\x00\x00\xd58pA'
p595
tp596
Rp597
aa(lp598
S'GTCGTTCCGCTCCTTGCTTGTAAAT'
p599
ag3
(g7
S'\x00\x00\x00\x00oC\x81A'
p600
tp601
Rp602
aa(lp603
S'TGTGTGTTCCCAGTCAGGCACTATA'
p604
ag3
(g7
S'UUUU5W\\A'
p605
tp606
Rp607
aa(lp608
S'TAAACTGGTGTTGCTTCGGGTCTTC'
p609
ag3
(g7
S'\x00\x00\x00\x80\xec\xdc\x85A'
p610
tp611
Rp612
aa(lp613
S'GTTGAGATCTACGTCAGGTCCAGCA'
p614
ag3
(g7
S'\x00\x00\x00\x004,sA'
p615
tp616
Rp617
aa(lp618
S'GCACACTAGCATTTGCCGTAGACTA'
p619
ag3
(g7
S'\x00\x00\x00\x00n\xc9sA'
p620
tp621
Rp622
aa(lp623
S'GGACCGTCGCTTTGAAGGTTTAGAC'
p624
ag3
(g7
S'\x00\x00\x00\x008\xc0fA'
p625
tp626
Rp627
aa(lp628
S'AGCAACCTTGGTTAGTGCAAATCGT'
p629
ag3
(g7
S'\x00\x00\x00\x00`0oA'
p630
tp631
Rp632
aa(lp633
S'ATGGCAGTAACGGAGGGAAGACTTG'
p634
ag3
(g7
S'\x00\x00\x00\x80g\xef\x89A'
p635
tp636
Rp637
aa(lp638
S'GCAACGTGAAGTATTCGTGTAGGCT'
p639
ag3
(g7
S'\x00\x00\x00\x00\xa0\x14DA'
p640
tp641
Rp642
aa(lp643
S'TAGGTGGACAGCCGATCTTCAAGTT'
p644
ag3
(g7
S'\x00\x00\x00\x005\x11tA'
p645
tp646
Rp647
aa(lp648
S'CGCGAACCGTAATGCCAAAATGATA'
p649
ag3
(g7
S'\x00\x00\x00\x80\x1b\x0e\x80A'
p650
tp651
Rp652
aa(lp653
S'TTGGAGAGGAAGGCCGGTTGTAAAC'
p654
ag3
(g7
S'\x00\x00\x00\x00\x0f\x17{A'
p655
tp656
Rp657
aa(lp658
S'TACAGGACCCTTGGCGGATTTACAA'
p659
ag3
(g7
S'\x00\x00\x00\x00\xf8\x9awA'
p660
tp661
Rp662
aa(lp663
S'GGATGTTTCCACGGCCTAGATGACT'
p664
ag3
(g7
S'\x00\x00\x00\x00FplA'
p665
tp666
Rp667
aa(lp668
S'TACTACTGTTGATCGAATGCGCAGA'
p669
ag3
(g7
S'\xab\xaa\xaa\xaa\xb0-dA'
p670
tp671
Rp672
aa(lp673
S'GCGGGTGGAACATCTGATTCTAGGT'
p674
ag3
(g7
S'\xff\xff\xff\xff\xec\x99tA'
p675
tp676
Rp677
aa(lp678
S'TTCACAGACGCAACTCTGGTCATCT'
p679
ag3
(g7
S'\x00\x00\x00\x00@\x12wA'
p680
tp681
Rp682
aa(lp683
S'CACCGTGTGGAGTATTTGAGGGAGT'
p684
ag3
(g7
S'\x00\x00\x00\x80\x1aj\x89A'
p685
tp686
Rp687
aa(lp688
S'GTTGGAGAGCAGTAGAACCGATGGT'
p689
ag3
(g7
S'\x01\x00\x00\x00\xb6\xab\x86A'
p690
tp691
Rp692
aa(lp693
S'TCACCAGGATGAGTACGAAAAACGC'
p694
ag3
(g7
S'\x01\x00\x00\x00\x1c\xa1UA'
p695
tp696
Rp697
aa(lp698
S'GATGCGGTAACATTCACATGCGTTC'
p699
ag3
(g7
S"\x00\x00\x00\x00'7uA"
p700
tp701
Rp702
aa(lp703
S'CACAGCATAAGCGCATGAAAACTGG'
p704
ag3
(g7
S'\x00\x00\x00\x00\xd6\xc9nA'
p705
tp706
Rp707
aa(lp708
S'AAATGTGAGCAATATGCAGGCTCGG'
p709
ag3
(g7
S'\x00\x00\x00\x00.zkA'
p710
tp711
Rp712
aa(lp713
S'TTCTACGCGAACACTACTCGGACAA'
p714
ag3
(g7
S'\x00\x00\x00\x00J\xc3uA'
p715
tp716
Rp717
aa(lp718
S'GGGAGTTCATGGACAGGTGCCTTAG'
p719
ag3
(g7
S'\x00\x00\x00\x00>\x89\x7fA'
p720
tp721
Rp722
aa(lp723
S'TTTCGTGGGCTTCTTTGTACGTTGG'
p724
ag3
(g7
S'VUUU\xd5\x13UA'
p725
tp726
Rp727
aa(lp728
S'GTGGACTGAGACCCTGCATATCGTA'
p729
ag3
(g7
S'\x00\x00\x00\x00\x04\x81{A'
p730
tp731
Rp732
aa(lp733
S'GTGGTCGCTTATACATGTGCGTCAA'
p734
ag3
(g7
S'\x00\x00\x00\x00\x88\x89VA'
p735
tp736
Rp737
aa(lp738
S'ACCACGACTCAAGTTCATGTTGCTC'
p739
ag3
(g7
S'\x00\x00\x00\x00\xc0\xc7hA'
p740
tp741
Rp742
aa(lp743
S'AACGGTACTCTGGTGGTGTAACGAG'
p744
ag3
(g7
S'\xf7\x12\xdaKh\r\xf8@'
p745
tp746
Rp747
aa(lp748
S'AGTCGGAATGAGCTGTCCCATAACC'
p749
ag3
(g7
S'\x00\x00\x00\x00\x9a\xf7hA'
p750
tp751
Rp752
aa(lp753
S'CAGGTCTGGGGGAACCTATACCAGG'
p754
ag3
(g7
S'\x00\x00\x00\x00\x98W@A'
p755
tp756
Rp757
aa(lp758
S'GCGACGTACGTCTACAAATTAACGC'
p759
ag3
(g7
S'\xff\xff\xff\xff3\x02jA'
p760
tp761
Rp762
aa(lp763
S'CGCAAGATTTCCCGTGTAACACCAA'
p764
ag3
(g7
S'\x00\x00\x00\x00\x95\xe9wA'
p765
tp766
Rp767
aa(lp768
S'CCTGGCACGTTCTAGTATTCGTTCG'
p769
ag3
(g7
S'\x00\x00\x00\x00\xba\xaamA'
p770
tp771
Rp772
aa(lp773
S'TTACGTACTATGCCAATCCCCGCTA'
p774
ag3
(g7
S'\x00\x00\x00\x00L\x8dwA'
p775
tp776
Rp777
aa(lp778
S'CAGGGGAGCAGTAACTAGTTCCACG'
p779
ag3
(g7
S'\x00\x00\x00\x00r]gA'
p780
tp781
Rp782
aa(lp783
S'AACGCTTGGGTATTGCATACCCCTT'
p784
ag3
(g7
S'\x01\x00\x00\x00\xc4\xf0hA'
p785
tp786
Rp787
aa(lp788
S'GTTCAGACCCTCTTGTGATCCGACA'
p789
ag3
(g7
S'\xff\xff\xff\xff\x87\xf4iA'
p790
tp791
Rp792
aa(lp793
S'CGTCGTTAGCATGGTAACCAAGCAA'
p794
ag3
(g7
S'\x00\x00\x00\x00\xad\trA'
p795
tp796
Rp797
aa(lp798
S'GCAATGGGATTTTCTGCGAGGAAGT'
p799
ag3
(g7
S'\x00\x00\x00\x00\x92{\x7fA'
p800
tp801
Rp802
aa(lp803
S'CATCGGTACTGATCAGTGTACCGGT'
p804
ag3
(g7
S'\xc7\xe5\x9f>\xdb\r\xa2@'
p805
tp806
Rp807
aa(lp808
S'TATGAAGATTTATCCCCGCTGCCCT'
p809
ag3
(g7
S'\x00\x00\x00\x00\xb8\x9f\x91A'
p810
tp811
Rp812
aa(lp813
S'GGAAGCCAAGCTCACTCAGAATCCT'
p814
ag3
(g7
S'\x00\x00\x00\x00\x18xeA'
p815
tp816
Rp817
aa(lp818
S'ACTTCCACTCAAACCGTTCCTCACT'
p819
ag3
(g7
S'\x00\x00\x00\x80i$\x9fA'
p820
tp821
Rp822
aa(lp823
S'CACTAACGTCTCGCCCAATGGATTC'
p824
ag3
(g7
S'\x00\x00\x00\x00\x9b\xdcyA'
p825
tp826
Rp827
aa(lp828
S'GAGATCTTTCCTGCACTACCTCGCT'
p829
ag3
(g7
S'\x00\x00\x00\x00\xda\x1chA'
p830
tp831
Rp832
aa(lp833
S'GGATTGAATTGTGGCCAGAGTGTCG'
p834
ag3
(g7
S'\x00\x00\x00\x80AI\x93A'
p835
tp836
Rp837
aa(lp838
S'CTCCCCGCCATGGATTAGAATCAGG'
p839
ag3
(g7
S'\x00\x00\x00\x80\x97\x9a\x81A'
p840
tp841
Rp842
aa(lp843
S'TACTACTTGCTGTGGAGTGTCTCGA'
p844
ag3
(g7
S'\x00\x00\x00\x00\xed.qA'
p845
tp846
Rp847
aa(lp848
S'TCTTCGGTGTCTAGCAGCCATATGT'
p849
ag3
(g7
S'\x00\x00\x00\x00EJqA'
p850
tp851
Rp852
aa(lp853
S'TGCTAATCAGCTGCTCTGTAGTCCC'
p854
ag3
(g7
S'\x00\x00\x00\x00\xcf\xb0qA'
p855
tp856
Rp857
aa(lp858
S'TGCTAGTAATCGTCCCGTTCCGTAT'
p859
ag3
(g7
S'\x00\x00\x00\x80\xb2?\x85A'
p860
tp861
Rp862
aa(lp863
S'TTCACAGTTGAGAAGCTCACCGAGT'
p864
ag3
(g7
S'\x00\x00\x00\x00:\xb4aA'
p865
tp866
Rp867
aa(lp868
S'AGCGAATGTGAACAACGGGTTAGAC'
p869
ag3
(g7
S'\x00\x00\x00\x00(\xb1rA'
p870
tp871
Rp872
aa(lp873
S'TGACACGTAAGAGAGGGATGCATGA'
p874
ag3
(g7
S'\x00\x00\x00\x00V\xd3\x82A'
p875
tp876
Rp877
aa(lp878
S'GTTCACATTACCGACCACTCCTGGA'
p879
ag3
(g7
S'\x00\x00\x00\x00ljuA'
p880
tp881
Rp882
aa(lp883
S'GTGATGGCGTGTTTAACGTTTTGGG'
p884
ag3
(g7
S'\x00\x00\x00\x00\x81F\x90A'
p885
tp886
Rp887
aa(lp888
S'ATGTCCAGCCTAATCTCCGCTTTCA'
p889
ag3
(g7
S'\x01\x00\x00\x00ct~A'
p890
tp891
Rp892
aa(lp893
S'GCTTCTCACCATTAACTGTAGCGGC'
p894
ag3
(g7
S'\x00\x00\x00\x00\xecIpA'
p895
tp896
Rp897
aa(lp898
S'AACTGTAACTCAAGAGCAGGGGCTG'
p899
ag3
(g7
S'\xff\xff\xff\xff\x81\xd7nA'
p900
tp901
Rp902
aa(lp903
S'TGAACTACGCCGAAGTCCGGTATAT'
p904
ag3
(g7
S'\x00\x00\x00\x00\xd97wA'
p905
tp906
Rp907
aa(lp908
S'ATTCCGGTAGAACCACGTGTGGTAG'
p909
ag3
(g7
S'\x00\x00\x00\x00^fmA'
p910
tp911
Rp912
aa(lp913
S'CGGCGGCGCATATGATGATATAACT'
p914
ag3
(g7
S'\xff\xff\xff\xff\xactuA'
p915
tp916
Rp917
aa(lp918
S'GGTCGACCTTTATTGTTAGCGAGCC'
p919
ag3
(g7
S'\x00\x00\x00\x00\xc02LA'
p920
tp921
Rp922
aa(lp923
S'CGCAAGCAGGATGTATGCTCAGATC'
p924
ag3
(g7
S'\x00\x00\x00\x00,EfA'
p925
tp926
Rp927
aa(lp928
S'CCTGATACATGCACCCTCAGCCTAC'
p929
ag3
(g7
S'\x00\x00\x00\x004,cA'
p930
tp931
Rp932
aa(lp933
S'GTGTGGCGTGAGCCCAGTTATAATG'
p934
ag3
(g7
S'\x00\x00\x00\x00\xc9(\x83A'
p935
tp936
Rp937
aa(lp938
S'GGAGCCCCATCAGACATAGCATCAG'
p939
ag3
(g7
S'\x00\x00\x00\x00\xdb\x01yA'
p940
tp941
Rp942
aa(lp943
S'TAGAGCGGTTTCTCCTTGCCTACTA'
p944
ag3
(g7
S'\x00\x00\x00\x00H\xcfjA'
p945
tp946
Rp947
aa(lp948
S'CTCAAGGAGATGGAGTGCAGTTCCC'
p949
ag3
(g7
S'VUUU\xb17PA'
p950
tp951
Rp952
aa(lp953
S'AGGAGTTCAACAAAGCTTGGTTGGC'
p954
ag3
(g7
S'\x00\x00\x00\x00\x0c\xfdtA'
p955
tp956
Rp957
aa(lp958
S'GTATGTATCAGCGGCATTACGTCGA'
p959
ag3
(g7
S'\xff\xff\xff\xff;\x13pA'
p960
tp961
Rp962
aa(lp963
S'TGTATGGCCTCGTCACTGTACAACT'
p964
ag3
(g7
S'\x00\x00\x00\x00\x90\x05`A'
p965
tp966
Rp967
aa(lp968
S'TCCTACTCATCCGCTGTTTACTCCG'
p969
ag3
(g7
S'\x00\x00\x00\xc0\xc3q\x94A'
p970
tp971
Rp972
aa(lp973
S'TTGAGCCCAAAACACGTGGCATATC'
p974
ag3
(g7
S'\x00\x00\x00\x00\xc2\xbbcA'
p975
tp976
Rp977
aa(lp978
S'CCCTAGCAATCATGCGATTCACACA'
p979
ag3
(g7
S'\x00\x00\x00\x80 \xf2\x87A'
p980
tp981
Rp982
aa(lp983
S'TTTGGTGTTGGAGAACCAGCAAACG'
p984
ag3
(g7
S'\x00\x00\x00\x00 _RA'
p985
tp986
Rp987
aa(lp988
S'TCAGCCACATTGCAAGTCATTCGAA'
p989
ag3
(g7
S'\x00\x00\x00\x80\xc0\xae\x80A'
p990
tp991
Rp992
aa(lp993
S'GTGGTAGAGTTCGCCTAACTCACCC'
p994
ag3
(g7
S'UUUUU4\x1aA'
p995
tp996
Rp997
aa(lp998
S'AGTTGCGTCAATCGGAGTCCTAGTT'
p999
ag3
(g7
S'\x00\x00\x00\x00\xc35\x81A'
p1000
tp1001
Rp1002
aa(lp1003
S'TGCATGAATTCATCCGAGGCTCAAC'
p1004
ag3
(g7
S'\xff\xff\xff\xffWskA'
p1005
tp1006
Rp1007
aa(lp1008
S'AGTCGTAAGCTTGCACCCCAAATTC'
p1009
ag3
(g7
S'\x00\x00\x00\x00\x90\x05\x80A'
p1010
tp1011
Rp1012
aa(lp1013
S'GCTGACATATGGACATCCCCGAACT'
p1014
ag3
(g7
S'\x01\x00\x00\x00F\x9a\x85A'
p1015
tp1016
Rp1017
aa(lp1018
S'TAACACACCGGACATCGACCTAGTT'
p1019
ag3
(g7
S'\x00\x00\x00\x00\xffrzA'
p1020
tp1021
Rp1022
aa(lp1023
S'CAGACCCATTCGATAATGGCGTGAC'
p1024
ag3
(g7
S'\x00\x00\x00\x00\x1c\x0ciA'
p1025
tp1026
Rp1027
aa(lp1028
S'TCACCTCCACGAGTTCGCAAATTTT'
p1029
ag3
(g7
S'\x00\x00\x00\x80J\xeb\x87A'
p1030
tp1031
Rp1032
aa(lp1033
S'ACTCCAACATGTGTAATGAGCTGCG'
p1034
ag3
(g7
S'\xff\xff\xff\xff~\xe7qA'
p1035
tp1036
Rp1037
aa(lp1038
S'TACGGGGCGAGATACCTTACTAAGC'
p1039
ag3
(g7
S'\x00\x00\x00\x00S\xfavA'
p1040
tp1041
Rp1042
aa(lp1043
S'AAGAGAGTGGTACCTGTCTGGGTGG'
p1044
ag3
(g7
S'\x00\x00\x00\x80\x10$\x8eA'
p1045
tp1046
Rp1047
aa(lp1048
S'ATCGCCGTACGAATATTACATCGCA'
p1049
ag3
(g7
S'UUUU\x15\xcePA'
p1050
tp1051
Rp1052
aa(lp1053
S'CCTAGACCAGCTATCCTCGATCCCA'
p1054
ag3
(g7
S'\x00\x00\x00\x80\xfc\x80\x86A'
p1055
tp1056
Rp1057
aa(lp1058
S'TACCCTCTATTTGGGGAGCGAATGG'
p1059
ag3
(g7
S'\x00\x00\x00\x00\xc4\xf0hA'
p1060
tp1061
Rp1062
aa(lp1063
S'CATTTGACAATGGGGCTGCCCAAAT'
p1064
ag3
(g7
S'\x00\x00\x00\x00\xe6\x97hA'
p1065
tp1066
Rp1067
aa(lp1068
S'CCACAGCCATCAGGATCAGACTGAG'
p1069
ag3
(g7
S'\x01\x00\x00\x00\x12\xc6mA'
p1070
tp1071
Rp1072
aa(lp1073
S'ACGTACGGTACACACATCTAGGTGG'
p1074
ag3
(g7
S'\x00\x00\x00\x00\xaa0fA'
p1075
tp1076
Rp1077
aa(lp1078
S'CTCGATTCACGTCGGATTACACGTT'
p1079
ag3
(g7
S'\x00\x00\x00\x00\xfcXdA'
p1080
tp1081
Rp1082
aa(lp1083
S'TTGCAGCTAACAACACAACGAGGAC'
p1084
ag3
(g7
S'\x00\x00\x00\x80j]\x82A'
p1085
tp1086
Rp1087
aa(lp1088
S'CCCAGACTCTCGTGAGTATGAAGCC'
p1089
ag3
(g7
S'\xff\xff\xff\xff\x87\xf4iA'
p1090
tp1091
Rp1092
aa(lp1093
S'GTAAGCGTACTCTCCAGGGCAACTT'
p1094
ag3
(g7
S'\x00\x00\x00\x00\x01\xfcqA'
p1095
tp1096
Rp1097
aa(lp1098
S'TTGAGTGAGGAAGGCGTGATGGATC'
p1099
ag3
(g7
S'\x00\x00\x00@\x0b\x02\x9cA'
p1100
tp1101
Rp1102
aa(lp1103
S'CTGGGGAATTCGTTCTGGCCTCTAG'
p1104
ag3
(g7
S'\x00\x00\x00\x00L\xb7pA'
p1105
tp1106
Rp1107
aa(lp1108
S'CTTCCCTTGCTAGATATGCCAGCCA'
p1109
ag3
(g7
S'\x00\x00\x00\x00\xb4\xb7{A'
p1110
tp1111
Rp1112
aa(lp1113
S'GTGTCGGTATTTCAGCCGGCTTATC'
p1114
ag3
(g7
S'\x00\x00\x00\x00\xa4=dA'
p1115
tp1116
Rp1117
aa(lp1118
S'AGCGCTTCTTGAGATGTGACGTATG'
p1119
ag3
(g7
S'\x00\x00\x00\x00\x94ojA'
p1120
tp1121
Rp1122
aa(lp1123
S'TCTCAAGAGCCACATGTTGCGATTA'
p1124
ag3
(g7
S'\x00\x00\x00\x00\x12\xf0fA'
p1125
tp1126
Rp1127
aa(lp1128
S'TCATGGGCGACTCCTAACTAGAACG'
p1129
ag3
(g7
S'\xff\xff\xff\xff\xd5\xc9~A'
p1130
tp1131
Rp1132
aa(lp1133
S'TCAAAGTTCCACTGGCGTTTACACA'
p1134
ag3
(g7
S'\x00\x00\x00\x00pilA'
p1135
tp1136
Rp1137
aa(lp1138
S'TCATCCTAGGCCAAACTCGTCTACG'
p1139
ag3
(g7
S'\x00\x00\x00\x00\xb3\x91\x80A'
p1140
tp1141
Rp1142
aa(lp1143
S'CTGTCCTGGTCCCTGTCTTTGCATT'
p1144
ag3
(g7
S'\x00\x00\x00\xc0\xa87\x94A'
p1145
tp1146
Rp1147
aa(lp1148
S'TTTCGTACACGCAAACTCTGTGTGT'
p1149
ag3
(g7
S'\x01\x00\x00\x000nfA'
p1150
tp1151
Rp1152
aa(lp1153
S'TCTTTCCAAGGTAGTCTGCCGACTC'
p1154
ag3
(g7
S'\xab\xaa\xaa\xaa\xca\x17 A'
p1155
tp1156
Rp1157
aa(lp1158
S'CATCGTTAGCGTCTATCTTGCTCCG'
p1159
ag3
(g7
S'\x00\x00\x00\x00\x06ufA'
p1160
tp1161
Rp1162
aa(lp1163
S'CACCAGATGGGGAGTACATCAAGGC'
p1164
ag3
(g7
S'UUUU\xc5\x04AA'
p1165
tp1166
Rp1167
aa(lp1168
S'TTCGCCAGGAGAATACTTCCGGAAC'
p1169
ag3
(g7
S'\x00\x00\x00\x00\x06\ncA'
p1170
tp1171
Rp1172
aa(lp1173
S'CTCTGTCACAGGACAGTTTCGGACT'
p1174
ag3
(g7
S'\x00\x00\x00\x00\xc0\xf1qA'
p1175
tp1176
Rp1177
aa(lp1178
S'TACAACGGCCGATGTACCAAGATTC'
p1179
ag3
(g7
S'\x00\x00\x00\x00\xec\x1fwA'
p1180
tp1181
Rp1182
aa(lp1183
S'TGGTGACAGCTATGGTTGTCTCAGG'
p1184
ag3
(g7
S'\x00\x00\x00\x00n^`A'
p1185
tp1186
Rp1187
aa(lp1188
S'GTCTTTTGTCACGTCGGCGTTTATG'
p1189
ag3
(g7
S'\x00\x00\x00\x00\xa4=\x84A'
p1190
tp1191
Rp1192
aa(lp1193
S'AATCGCAGACCTGACCCCTAGGAAA'
p1194
ag3
(g7
S'\xaa\xaa\xaa\xaa\x91_pA'
p1195
tp1196
Rp1197
aa(lp1198
S'CTACTGTCGCAAACTATGGATCGCC'
p1199
ag3
(g7
S'\x00\x00\x00\x00\xc5\xffrA'
p1200
tp1201
Rp1202
aa(lp1203
S'AGCCAGGGGCTGAAAAAAGTCTGAT'
p1204
ag3
(g7
S'\x00\x00\x00\x00#\xa3\x81A'
p1205
tp1206
Rp1207
aa(lp1208
S'CGAACCTGGGGTGACTATCATACGG'
p1209
ag3
(g7
S'\x00\x00\x00\x00\xcd\xbcvA'
p1210
tp1211
Rp1212
aa(lp1213
S'AACAGGATCCTAAAGGCATGGTGCA'
p1214
ag3
(g7
S'\x01\x00\x00\x00\x8a}qA'
p1215
tp1216
Rp1217
aa(lp1218
S'CAAGTCGTGAAGGCTACTTATGGCG'
p1219
ag3
(g7
S'\x00\x00\x00\x00 _bA'
p1220
tp1221
Rp1222
aa(lp1223
S'ACACTTCCCAGATCTTGATGGTCGG'
p1224
ag3
(g7
S'\x00\x00\x00\x00\x14\x90\x7fA'
p1225
tp1226
Rp1227
aa(lp1228
S'TGTTGCGTACCGAGCTATATGGGAA'
p1229
ag3
(g7
S'\x00\x00\x00\x00j\xa0\x83A'
p1230
tp1231
Rp1232
aa(lp1233
S'CGCAACGTTACATGAATGTAAGGCG'
p1234
ag3
(g7
S'h/\xa1\xbd\xe4\xf5&A'
p1235
tp1236
Rp1237
aa(lp1238
S'ACTCGTACGGATTCCACATGGAACT'
p1239
ag3
(g7
S'\x00\x00\x00\x00\xe2\x98qA'
p1240
tp1241
Rp1242
aa(lp1243
S'CGGATTATCCAGGCAAGATAAGCGC'
p1244
ag3
(g7
S'UUUU\x05\x953A'
p1245
tp1246
Rp1247
aa(lp1248
S'TACTTCGCGGACTCCATACGGATAT'
p1249
ag3
(g7
S'\x00\x00\x00\x00\x13\xffpA'
p1250
tp1251
Rp1252
aa(lp1253
S'GCAACGCTCCTTGTATTCGAAGAGT'
p1254
ag3
(g7
S'\x00\x00\x00\x00\xc2\xbbcA'
p1255
tp1256
Rp1257
aa(lp1258
S'GCAGTACTACCAGGTGCATGGAGAG'
p1259
ag3
(g7
S'\x00\x00\x00\x00\xd4\xberA'
p1260
tp1261
Rp1262
aa(lp1263
S'GTCAGACCTCATATCCGGAGCGTTT'
p1264
ag3
(g7
S'\x00\x00\x00\x00>\xddqA'
p1265
tp1266
Rp1267
aa(lp1268
S'CGGGATAGTACGTTTCCGAGGGATC'
p1269
ag3
(g7
S'\x00\x00\x00\x00\xa1\xf9tA'
p1270
tp1271
Rp1272
aa(lp1273
S'CTCAGGCTAGGGAAGTGGAGAGGTA'
p1274
ag3
(g7
S'\x01\x00\x00\x00n\nnA'
p1275
tp1276
Rp1277
aa(lp1278
S'ACTCTGGGATCCAAACACACGTAGG'
p1279
ag3
(g7
S'\x00\x00\x00\x00\xba\xd4vA'
p1280
tp1281
Rp1282
aa(lp1283
S'CCTCCGGACAGTACCTGAAATGTGT'
p1284
ag3
(g7
S'\x00\x00\x00\x00tQrA'
p1285
tp1286
Rp1287
aa(lp1288
S'GCCGGTTACCTTAAGTGGATCGGAA'
p1289
ag3
(g7
S'\xe38\x8e\xe3hd3A'
p1290
tp1291
Rp1292
aa(lp1293
S'ATCGATAACCCGAGATAACGTCCGT'
p1294
ag3
(g7
S'\x00\x00\x00\x00\x80\xccbA'
p1295
tp1296
Rp1297
aa(lp1298
S'GCACCTCTCAAGTTGAACACATCCG'
p1299
ag3
(g7
S'\x00\x00\x00\x00c3\x84A'
p1300
tp1301
Rp1302
aa(lp1303
S'ATTGAACTTCTGGGCCACCTCCATG'
p1304
ag3
(g7
S'\x00\x00\x00\x00\xfe\xf8|A'
p1305
tp1306
Rp1307
aa(lp1308
S'TATGGAAACGCTATTTCACCGCCAA'
p1309
ag3
(g7
S'\x00\x00\x00\x00\xb2\xediA'
p1310
tp1311
Rp1312
aa(lp1313
S'TATAGCGGTGCCAAAGAGTGTTCAC'
p1314
ag3
(g7
S'\x00\x00\x00\x00#\x0euA'
p1315
tp1316
Rp1317
aa(lp1318
S'CCCATTAGACACTGACATAGGGCCG'
p1319
ag3
(g7
S'\x00\x00\x00\x00 \xcaeA'
p1320
tp1321
Rp1322
aa(lp1323
S'CTTGCCAAATGGTCTGCTAAGCGAT'
p1324
ag3
(g7
S'\x00\x00\x00\x00\xb4"oA'
p1325
tp1326
Rp1327
aa(lp1328
S'AACTTCTAGATCACTGCCCAACGCT'
p1329
ag3
(g7
S'\x00\x00\x00\x00\xd8RvA'
p1330
tp1331
Rp1332
aa(lp1333
S'GTCCCAATGCCCGGTCAGTCTTAAT'
p1334
ag3
(g7
S'\x00\x00\x00\x00\x07\xef\x83A'
p1335
tp1336
Rp1337
aa(lp1338
S'GGGTGAAGAGCGAGCAAGTTGAATA'
p1339
ag3
(g7
S'\x00\x00\x00@\x1fd\x99A'
p1340
tp1341
Rp1342
aa(lp1343
S'AGCTGGCTACCCCAAATTCTACGAG'
p1344
ag3
(g7
S'\x00\x00\x00\x00\xaeYvA'
p1345
tp1346
Rp1347
aa(lp1348
S'TGAGCGTGCATATCATAGCAAGTGG'
p1349
ag3
(g7
S'\xff\xff\xff\xff\xa0\xf9tA'
p1350
tp1351
Rp1352
aa(lp1353
S'GGGAGTTTTTAGCCGAAAGACGGTC'
p1354
ag3
(g7
S'\xff\xff\xff\x7f\xc4\x18\x8bA'
p1355
tp1356
Rp1357
aa(lp1358
S'CAGCTACACCAATAATGGCATGGGC'
p1359
ag3
(g7
S'\x00\x00\x00\x00\x1al`A'
p1360
tp1361
Rp1362
aa(lp1363
S'GGTCTACCTCTCAACACACTCCCCT'
p1364
ag3
(g7
S'\x00\x00\x00@\xc9<\x94A'
p1365
tp1366
Rp1367
aa(lp1368
S'AAGAAACCAATTACGCGCCTGATGA'
p1369
ag3
(g7
S'\x00\x00\x00\x00p(\x82A'
p1370
tp1371
Rp1372
aa(lp1373
S'GTGGCATCTACTACGGTTCACAGGA'
p1374
ag3
(g7
S'\x00\x00\x00\x006\xf6tA'
p1375
tp1376
Rp1377
aa(lp1378
S'CGGAACCCATCCCCATAGAGGAGTT'
p1379
ag3
(g7
S'\x00\x00\x00\x00z\xd9`A'
p1380
tp1381
Rp1382
aa(lp1383
S'TTTGGGTATGCCTGATTCGGAGGTG'
p1384
ag3
(g7
S'\x00\x00\x00\x80w(\x87A'
p1385
tp1386
Rp1387
aa(lp1388
S'ACGGTATGTCGGAAACAACCAACAG'
p1389
ag3
(g7
S'UUUUQ\xa0VA'
p1390
tp1391
Rp1392
aa(lp1393
S'CCTACAATTCGTACGTGCACCAAGT'
p1394
ag3
(g7
S'\x00\x00\x00\x00^fmA'
p1395
tp1396
Rp1397
aa(lp1398
S'CTACGTGCGGCTTAGTAAGTGTACG'
p1399
ag3
(g7
S'_B{\t-c"A'
p1400
tp1401
Rp1402
aa(lp1403
S'TTGTTAACCGCTCGGCTTCAGTTTA'
p1404
ag3
(g7
S'\x00\x00\x00\x00}\xf3vA'
p1405
tp1406
Rp1407
aa(lp1408
S'TCTATGCAACCCTGGCAAAACGTAC'
p1409
ag3
(g7
S'\xff\xff\xff\xffv\xd6{A'
p1410
tp1411
Rp1412
aa(lp1413
S'CTCCACAGTTAGTCGTTGAGGACCC'
p1414
ag3
(g7
S'\x00\x00\x00\x00\x1c\xa1eA'
p1415
tp1416
Rp1417
aa(lp1418
S'TCTTTCTGCATCGCATCTTACGGAC'
p1419
ag3
(g7
S'\x00\x00\x00\x00+\xf5\x81A'
p1420
tp1421
Rp1422
aa(lp1423
S'AACCGGGATTCAATACTCGACCCAC'
p1424
ag3
(g7
S'\x00\x00\x00\x00\xb4vaA'
p1425
tp1426
Rp1427
aa(lp1428
S'GAGCTGTGGTGCTACATGGCTAGAA'
p1429
ag3
(g7
S'\xff\xff\xff\xffWs[A'
p1430
tp1431
Rp1432
aa(lp1433
S'CAATGCGAATATGACAACGGACGTG'
p1434
ag3
(g7
S'\x00\x00\x00\x00\x0e2zA'
p1435
tp1436
Rp1437
aa(lp1438
S'GCACACAGCCGTGGTTGGTAATATA'
p1439
ag3
(g7
S'\x00\x00\x00\x00\xe6,\x85A'
p1440
tp1441
Rp1442
aa(lp1443
S'CTTGCGACGTTGCTAAGTTTTGTGT'
p1444
ag3
(g7
S'\x00\x00\x00\x80Z\xb9\x81A'
p1445
tp1446
Rp1447
aa(lp1448
S'TTCGGAAGATTGACTTACCGGGGTG'
p1449
ag3
(g7
S'\x00\x00\x00\x00\x8c\xb2fA'
p1450
tp1451
Rp1452
aa(lp1453
S'AGACCGAAAAATCTGTCGGCTTACG'
p1454
ag3
(g7
S'\x00\x00\x00\x00\xec\x8aZA'
p1455
tp1456
Rp1457
aa(lp1458
S'CATTTATCCTAGCAGCCTTGCGCAT'
p1459
ag3
(g7
S'\x00\x00\x00\x00\xf1\xc2\x84A'
p1460
tp1461
Rp1462
aa(lp1463
S'TCTTCCCGGTGTGTGAGACATACAG'
p1464
ag3
(g7
S'\x00\x00\x00\x00\xb3\xfcsA'
p1465
tp1466
Rp1467
aa(lp1468
S'GGTAAGCTCGCTGTAAGTTCGTGTA'
p1469
ag3
(g7
S'\x00\x00\x00\x00c\t{A'
p1470
tp1471
Rp1472
aa(lp1473
S'CACTCTCTGGCCTACGACTGAAGAC'
p1474
ag3
(g7
S'\x00\x00\x00\x00R\x80iA'
p1475
tp1476
Rp1477
aa(lp1478
S'TCGGCAGGGTGCAAGAAAATTGAAT'
p1479
ag3
(g7
S'\x00\x00\x00\x00E\xf6~A'
p1480
tp1481
Rp1482
aa(lp1483
S'CGTAAGTGGACGTAGGGTAGCTTGA'
p1484
ag3
(g7
S'\x00\x00\x00\x00\x9e\xb5eA'
p1485
tp1486
Rp1487
aa(lp1488
S'GAGAAAAATCCAGACTCCGTAGCGC'
p1489
ag3
(g7
S'\x00\x00\x00\x00@\x12wA'
p1490
tp1491
Rp1492
aa(lp1493
S'GTAAGGGAACACTCACACAACTGCG'
p1494
ag3
(g7
S'\x00\x00\x00\x00\xbe\xfdvA'
p1495
tp1496
Rp1497
aa(lp1498
S'CGTTTGGGGGGAGGTTACGTTTTTC'
p1499
ag3
(g7
S'\x00\x00\x00\x00\xbc3uA'
p1500
tp1501
Rp1502
aa(lp1503
S'CGTTGTAGGAAAGCAGCCGAATACA'
p1504
ag3
(g7
S'\x00\x00\x00\x008\x96]A'
p1505
tp1506
Rp1507
aa(lp1508
S'AAGAAGGGACAATTGGAGACGCACT'
p1509
ag3
(g7
S'\x00\x00\x00\x80\xba\xd2\x8fA'
p1510
tp1511
Rp1512
aa(lp1513
S'GTCTGGTTATCCTGGCTGGGTTTGT'
p1514
ag3
(g7
S'\xff\xff\xff\xff\xeco\x8bA'
p1515
tp1516
Rp1517
aa(lp1518
S'TGTCTCATGAACCTTTGGCAGACCT'
p1519
ag3
(g7
S'\xab\xaa\xaa\xaa2BDA'
p1520
tp1521
Rp1522
aa(lp1523
S'TAACTGATTCATCAGGCGTGAAGGC'
p1524
ag3
(g7
S'\x00\x00\x00\x00\xd6\x1dqA'
p1525
tp1526
Rp1527
aa(lp1528
S'TGGTTCACTGGTTTCAAGACCTGGA'
p1529
ag3
(g7
S'\x00\x00\x00\x00p\xfehA'
p1530
tp1531
Rp1532
aa(lp1533
S'GAGTGACACGTATGAGCGGAACATC'
p1534
ag3
(g7
S'\x00\x00\x00\x00\xaa\x9byA'
p1535
tp1536
Rp1537
aa(lp1538
S'CGGAAAACACGCGGGTATCAAATTG'
p1539
ag3
(g7
S'\x00\x00\x00\x00\x96\xf8\x81A'
p1540
tp1541
Rp1542
aa(lp1543
S'TCGCCCTGCAAACTTTAGTAACTCG'
p1544
ag3
(g7
S'\xff\xff\xff\xffI\x99|A'
p1545
tp1546
Rp1547
aa(lp1548
S'TACCTGCGGCAGTAGGTAACAAGAT'
p1549
ag3
(g7
S'\x00\x00\x00\x00\x99\xa7tA'
p1550
tp1551
Rp1552
aa(lp1553
S'TAAGTGCTATTAGAAGGTCCCGCCA'
p1554
ag3
(g7
S'\x00\x00\x00\x00e\x92rA'
p1555
tp1556
Rp1557
aa(lp1558
S'TAGTAGCGACCATGGGAATGGTCTC'
p1559
ag3
(g7
S'\x01\x00\x00\x00\xa8fdA'
p1560
tp1561
Rp1562
aa(lp1563
S'ACGATTTGGGATCAGACCAGCATCT'
p1564
ag3
(g7
S'\x00\x00\x00\x00\xc6\xe4cA'
p1565
tp1566
Rp1567
aa(lp1568
S'ATGTTTCACCAACCAGACTGGACCC'
p1569
ag3
(g7
S'\x00\x00\x00\x00\xf6\xd0uA'
p1570
tp1571
Rp1572
aa(lp1573
S'TGGCATGCATTATGCGGTATGTACA'
p1574
ag3
(g7
S'\x00\x00\x00\x00~\x02aA'
p1575
tp1576
Rp1577
aa(lp1578
S'TGTGGCGACAGGTCTACACTTTAGT'
p1579
ag3
(g7
S'\xff\xff\xff\xff/\x03cA'
p1580
tp1581
Rp1582
aa(lp1583
S'CAATCTTCGAGTTCGATTGCGGGAT'
p1584
ag3
(g7
S'\x01\x00\x00\x00\x80\rmA'
p1585
tp1586
Rp1587
aa(lp1588
S'AACGCATACCGGTGCTTCCTTTTTT'
p1589
ag3
(g7
S'\xff\xff\xff\x7f\x88\x1c\x8cA'
p1590
tp1591
Rp1592
aa(lp1593
S'TGGAACAAGTCGTGACTATGGGTCA'
p1594
ag3
(g7
S'\x00\x00\x00\x00\x9e\xb5eA'
p1595
tp1596
Rp1597
aa(lp1598
S'TACTCGAGTACCAAGGGCAGAAGTC'
p1599
ag3
(g7
S"\xff\xff\xff\xff\x1a'xA"
p1600
tp1601
Rp1602
aa(lp1603
S'TGAGTGGTCTCCGTCTTCTAGTTGC'
p1604
ag3
(g7
S'\x00\x00\x00\x00\x8e|xA'
p1605
tp1606
Rp1607
aa(lp1608
S'CCCTGGGGCGACTGGAAAAATCTAA'
p1609
ag3
(g7
S'\xff\xff\xff\xffo\xfexA'
p1610
tp1611
Rp1612
aa(lp1613
S'TAGTACCTTCGGTTAAAAAGCGGCA'
p1614
ag3
(g7
S'\x00\x00\x00\x00\x98\x03nA'
p1615
tp1616
Rp1617
aa(lp1618
S'TATAGGGCTTAAGTCGCGGTATCCC'
p1619
ag3
(g7
S'\x00\x00\x00\x00R\x80iA'
p1620
tp1621
Rp1622
aa(lp1623
S'TAAGGGCTGCTTAGTAGGTTTGCCT'
p1624
ag3
(g7
S'\x00\x00\x00\x000n6A'
p1625
tp1626
Rp1627
aa(lp1628
S'CGCGACTCAACGTTTTTGCCTATTA'
p1629
ag3
(g7
S'\x00\x00\x00\x80\xcfm\x80A'
p1630
tp1631
Rp1632
aa(lp1633
S'GTCGTATGTTTATGGTGCCAGACGG'
p1634
ag3
(g7
S'\x03O\xb7\xe6\x87\x94\xfd@'
p1635
tp1636
Rp1637
aa(lp1638
S'GCTGATTAGATGTCGGCTTCAAGCA'
p1639
ag3
(g7
S'UUUU\xab\x85hA'
p1640
tp1641
Rp1642
aa(lp1643
S'ATCAACCAAGAGTGACAGTGCCACT'
p1644
ag3
(g7
S'\x00\x00\x00\x00\x8eR\x7fA'
p1645
tp1646
Rp1647
aa(lp1648
S'GTGCCGATGGTAAACAAAATCCCCC'
p1649
ag3
(g7
S'\x01\x00\x00\x00\xd25{A'
p1650
tp1651
Rp1652
aa(lp1653
S'CACTCGTAGGGCAAATGTTTCGGTT'
p1654
ag3
(g7
S'\x00\x00\x00\x00\x17(qA'
p1655
tp1656
Rp1657
aa(lp1658
S'GAGTTATGCACTTCACGCAGTGAGT'
p1659
ag3
(g7
S'UUUU\xb5\xa1ZA'
p1660
tp1661
Rp1662
aa(lp1663
S'TACACATCATGCGAGGATGAGCAAG'
p1664
ag3
(g7
S'\x00\x00\x00\x00\xe2DoA'
p1665
tp1666
Rp1667
aa(lp1668
S'GTACCGTCCCATACCTTCCTTCGTC'
p1669
ag3
(g7
S'\x01\x00\x00\x00U\xc4xA'
p1670
tp1671
Rp1672
aa(lp1673
S'TCGCTTGATGAGTCAAACAATCGGA'
p1674
ag3
(g7
S'UUUU5\xc2/A'
p1675
tp1676
Rp1677
aa(lp1678
S'AATGCTGAGGTTATGGCCACGTAGA'
p1679
ag3
(g7
S'\x00\x00\x00\x006\xf6tA'
p1680
tp1681
Rp1682
aa(lp1683
S'GGAAGGTGTGTTCAGCAGGATGGAT'
p1684
ag3
(g7
S'\x00\x00\x00\x80*y\x8dA'
p1685
tp1686
Rp1687
aa(lp1688
S'CGATTCGGCCCGTTCATGAAATTTG'
p1689
ag3
(g7
S'\x00\x00\x00\x00|\xe4|A'
p1690
tp1691
Rp1692
aa(lp1693
S'GCCGCCCCCATAACTCTATCTCAAG'
p1694
ag3
(g7
S'\x00\x00\x00\x80\xa3V\x9cA'
p1695
tp1696
Rp1697
aa(lp1698
S'CGTTCCCATGAAACCCACCAGAGAA'
p1699
ag3
(g7
S'\x00\x00\x00\x80l\xbc\x80A'
p1700
tp1701
Rp1702
aa(lp1703
S'GATAGACCACAGCGAGCAGTCTAGG'
p1704
ag3
(g7
S'VUUUU4\nA'
p1705
tp1706
Rp1707
aa(lp1708
S'TTCGTCCAATTGGAAGTGCCATTCG'
p1709
ag3
(g7
S'\x00\x00\x00\x00\x12\x85sA'
p1710
tp1711
Rp1712
aa(lp1713
S'GGCGAAAGAAATGCACTAAGGTGGA'
p1714
ag3
(g7
S'\x00\x00\x00\x00@<\x80A'
p1715
tp1716
Rp1717
aa(lp1718
S'CTCTAGCACAGCGAATGTTGCATCT'
p1719
ag3
(g7
S'\x00\x00\x00\x00\x82lkA'
p1720
tp1721
Rp1722
aa(lp1723
S'GGACCTATAGCCGGTGTATTGAGCC'
p1724
ag3
(g7
S'\x00\x00\x00\x008+zA'
p1725
tp1726
Rp1727
aa(lp1728
S'ATTGGGCTTTTCATGGCCGTACAAC'
p1729
ag3
(g7
S'\x00\x00\x00\x00b\xb9fA'
p1730
tp1731
Rp1732
aa(lp1733
S'ACCGTGACTAAAAAATCCGTGCAGA'
p1734
ag3
(g7
S'\x00\x00\x00\x00\xa5"uA'
p1735
tp1736
Rp1737
aa(lp1738
S'CGTTACATGGCAAAAACCCAGAGGG'
p1739
ag3
(g7
S'\x00\x00\x00\x00\x1b\xfd~A'
p1740
tp1741
Rp1742
aa(lp1743
S'GACAGGGTACATAGGCCAGACTCCT'
p1744
ag3
(g7
S'\x00\x00\x00\x00\xb2\x17sA'
p1745
tp1746
Rp1747
aa(lp1748
S'AGGCTTATTCGTTGTGCATCAGGTG'
p1749
ag3
(g7
S'\x00\x00\x00\x80MY\x80A'
p1750
tp1751
Rp1752
aa(lp1753
S'TCTACCAAAGTTAGCACGCATGAGC'
p1754
ag3
(g7
S'\x00\x00\x00\x00\xe4\xcdfA'
p1755
tp1756
Rp1757
aa(lp1758
S'ATTCACCAACCGTACGCCAAGAATG'
p1759
ag3
(g7
S'\xff\xff\xff\xff-\x0fhA'
p1760
tp1761
Rp1762
aa(lp1763
S'GTTCGCCACAGGTTTAACATTGGGT'
p1764
ag3
(g7
S'\x00\x00\x00\x00\xd2\xf4`A'
p1765
tp1766
Rp1767
aa(lp1768
S'CGGTTTCGACGCCTAACACAACTAT'
p1769
ag3
(g7
S'\x00\x00\x00\x009\x10{A'
p1770
tp1771
Rp1772
aa(lp1773
S'CGAGGTTACCATCCATGGATTCGGA'
p1774
ag3
(g7
S'\xff\xff\xff\xff\xdfzmA'
p1775
tp1776
Rp1777
aa(lp1778
S'GCGCAGAGGGTCAATATATACGCAC'
p1779
ag3
(g7
S'UUUU\xd5\x13\x15A'
p1780
tp1781
Rp1782
aa(lp1783
S'TGACCCGTGCCTTTAGGAGTTTAGG'
p1784
ag3
(g7
S'\x00\x00\x00\x80\xcd\x0e\x82A'
p1785
tp1786
Rp1787
aa(lp1788
S'TCCGTACTAGAACTCCAGGACGGAA'
p1789
ag3
(g7
S'\x95\xc5j\xec\x9c<_@'
p1790
tp1791
Rp1792
aa(lp1793
S'TTGCACTTTTCTTTACGCCCCGTAG'
p1794
ag3
(g7
S'\x00\x00\x00\x80;\x97\x8bA'
p1795
tp1796
Rp1797
aa(lp1798
S'GCGTGCTCTGTGCGTTAATAGTTTG'
p1799
ag3
(g7
S'\xab\xaa\xaa\xaa\x11\x80uA'
p1800
tp1801
Rp1802
aa(lp1803
S'CCAACCAGCGATAATGTTGAGTCGT'
p1804
ag3
(g7
S'\x00\x00\x00\x00\x04\x81[A'
p1805
tp1806
Rp1807
aa(lp1808
S'GTTCCGCGTGTAACACAAGAAGACT'
p1809
ag3
(g7
S'\x00\x00\x00\x00@}jA'
p1810
tp1811
Rp1812
aa(lp1813
S'GTAGACGGACCTGTGAACGACAGAA'
p1814
ag3
(g7
S'\x00\x00\x00\x00\xae\xc4yA'
p1815
tp1816
Rp1817
aa(lp1818
S'GAATGGTTATTTTTGCCCCGGGGTC'
p1819
ag3
(g7
S'\x00\x00\x00\x00\\1xA'
p1820
tp1821
Rp1822
aa(lp1823
S'GATTCAGCAGACCGTGCAACTGAAA'
p1824
ag3
(g7
S'UUUU\x05\x007A'
p1825
tp1826
Rp1827
aa(lp1828
S'TTGGAATGACTAGGCAGCACAGTGT'
p1829
ag3
(g7
S'\x00\x00\x00\x80.a\x83A'
p1830
tp1831
Rp1832
aa(lp1833
S'GTCCAGTTCTGGGAACAGTGGCTAG'
p1834
ag3
(g7
S'\x00\x00\x00\x00\xd0\x95bA'
p1835
tp1836
Rp1837
aa(lp1838
S'GCTGTTTGTCCTGTTAAGGACCGTG'
p1839
ag3
(g7
S'\x00\x00\x00\x00D\xa6zA'
p1840
tp1841
Rp1842
aa(lp1843
S'CCCTAGCCGCATCTTCTGTTACCTA'
p1844
ag3
(g7
S'\x00\x00\x00\x00\xd4\x94\x89A'
p1845
tp1846
Rp1847
aa(lp1848
S'GCGGGTAAAGAGTCCTCCTTGACTC'
p1849
ag3
(g7
S'\x00\x00\x00\x00&({A'
p1850
tp1851
Rp1852
aa(lp1853
S'TCTAGTTCCAGCAGTAAGTCCGCTC'
p1854
ag3
(g7
S'\x00\x00\x00\x00\xd5\xa3sA'
p1855
tp1856
Rp1857
aa(lp1858
S'AGTTGGGCAACTTTTCATAGCCGTC'
p1859
ag3
(g7
S'\x00\x00\x00\x00z\x1akA'
p1860
tp1861
Rp1862
aa(lp1863
S'GCTGAGTATCAGCTCCCCGAGATTC'
p1864
ag3
(g7
S'\x00\x00\x00\x00U\xeeqA'
p1865
tp1866
Rp1867
aa(lp1868
S'CCATCACAGGCAAGGACCTTAGGTC'
p1869
ag3
(g7
S'\x00\x00\x00\x00\x11vyA'
p1870
tp1871
Rp1872
aa(lp1873
S'GTAAATGGAGGCTGCTCAGTGGAGA'
p1874
ag3
(g7
S'\x00\x00\x00\x00\xeeT\x8cA'
p1875
tp1876
Rp1877
aa(lp1878
S'TCACAGCTCGCGAACTCAATGTATA'
p1879
ag3
(g7
S'\x00\x00\x00\x00`\x84qA'
p1880
tp1881
Rp1882
aa(lp1883
S'TGGTTACTGGGGGTTCGCTTAAGAG'
p1884
ag3
(g7
S'\x00\x00\x00\x00\xdc\xe6\x89A'
p1885
tp1886
Rp1887
aa(lp1888
S'ACTGCTTCTATACGGAGTTGACCGT'
p1889
ag3
(g7
S'\x00\x00\x00\x00\xcb\x87\x81A'
p1890
tp1891
Rp1892
aa(lp1893
S'GTGCGATGGAACCAGGGATCTTAGT'
p1894
ag3
(g7
S'\xff\xff\xff\x7f\xca\x0b\x8dA'
p1895
tp1896
Rp1897
aa(lp1898
S'GTGATCAGGTTGGGTACTCCAGCAG'
p1899
ag3
(g7
S'\x00\x00\x00\x00\x96cuA'
p1900
tp1901
Rp1902
aa(lp1903
S'CGATCTTTCGTAGATTGCCTTGGCA'
p1904
ag3
(g7
S'\x00\x00\x00\x00\xf8\x9aGA'
p1905
tp1906
Rp1907
aa(lp1908
S'AGCAGTCTAGAGTGTACGAACGCTT'
p1909
ag3
(g7
S'UUUU\x81\xb6QA'
p1910
tp1911
Rp1912
aa(lp1913
S'GCAAAACAGTTAGATCTGGGGACGC'
p1914
ag3
(g7
S'\x00\x00\x00\x00\xf0\x1e~A'
p1915
tp1916
Rp1917
aa(lp1918
S'TGCTCTGCGTATGCCTAAAACATGT'
p1919
ag3
(g7
S'\x00\x00\x00\x00H:nA'
p1920
tp1921
Rp1922
aa(lp1923
S'TCTGCAACAAAACATTGGCTACCCA'
p1924
ag3
(g7
S'\x00\x00\x00\x00\x13@{A'
p1925
tp1926
Rp1927
aa(lp1928
S'GCAGAGTGGGAGGCCAGAATAATGT'
p1929
ag3
(g7
S'\x01\x00\x00\x00Zg\x86A'
p1930
tp1931
Rp1932
aa(lp1933
S'TAACCTCCCTAGAGCACGCAGATTA'
p1934
ag3
(g7
S'\xaa\xaa\xaa\xaa\xa6\xe7XA'
p1935
tp1936
Rp1937
aa(lp1938
S'CCACACTTCTTTTGCCTGTTTGGGT'
p1939
ag3
(g7
S'\x00\x00\x00\x00\xd2\xcagA'
p1940
tp1941
Rp1942
aa(lp1943
S'CTGCCAAGTTGGAATATTTGCGTGC'
p1944
ag3
(g7
S'\x00\x00\x00\x00n^\x80A'
p1945
tp1946
Rp1947
aa(lp1948
S'CTAGCCTGACTCCCAACTTGATCCG'
p1949
ag3
(g7
S'\x00\x00\x00\x80\xc7\x1b\x80A'
p1950
tp1951
Rp1952
aa(lp1953
S'TGTCTCCCATTCATCTCGCGAGATT'
p1954
ag3
(g7
S'UUUU\xbd\x1ddA'
p1955
tp1956
Rp1957
aa(lp1958
S'GCTCAACAGGCAGCAAAATTCGTTA'
p1959
ag3
(g7
S'\x00\x00\x00\x00\xc6\xbajA'
p1960
tp1961
Rp1962
aa(lp1963
S'GAAGAGTATAGGGTACCGAGCGACG'
p1964
ag3
(g7
S'\x00\x00\x00\x00\xcf\x1b\x85A'
p1965
tp1966
Rp1967
aa(lp1968
S'TTGAATGAAAGCCTATGGCACTGCG'
p1969
ag3
(g7
S'\x01\x00\x00\x80\x17\xbb\x86A'
p1970
tp1971
Rp1972
aa(lp1973
S'CACAGGAATCATCACAATCGGCCTG'
p1974
ag3
(g7
S's\x1c\xc7q\\\xce\x1fA'
p1975
tp1976
Rp1977
aa(lp1978
S'GGGTGTCCTCAAGCGAAAAGGAAAC'
p1979
ag3
(g7
S'\x00\x00\x00\x00\x90\xdbVA'
p1980
tp1981
Rp1982
aa(lp1983
S'AGACCTCGGTTTATAAGACGACGGG'
p1984
ag3
(g7
S'UUUU\xd5~HA'
p1985
tp1986
Rp1987
aa(lp1988
S'ACCTCTATTTGTCGTGGTGCATCCT'
p1989
ag3
(g7
S'\x00\x00\x00\x004\x02jA'
p1990
tp1991
Rp1992
aa(lp1993
S'ACAGTGGTAGCTTCCCACAAGACAG'
p1994
ag3
(g7
S'\x00\x00\x00\x00"\x94gA'
p1995
tp1996
Rp1997
aa(lp1998
S'TTGGACCGTATAGATGTCACGTCCG'
p1999
ag3
(g7
S'9\x8e\xe38\x8e\x00\x0eA'
p2000
tp2001
Rp2002
aa(lp2003
S'TGGCATACCAGCTCTTCTATGCTGT'
p2004
ag3
(g7
S'\x00\x00\x00\x00\x84\xcbYA'
p2005
tp2006
Rp2007
aa(lp2008
S'CGTGTGACGGTACCTCTAGAAGCAA'
p2009
ag3
(g7
S'\x00\x00\x00\x00\xfcXtA'
p2010
tp2011
Rp2012
aa(lp2013
S'AAAGATGCCGCTAAGTCAAGATCGC'
p2014
ag3
(g7
S'\x00\x00\x00\x00)\xd7}A'
p2015
tp2016
Rp2017
aa(lp2018
S'CATCCGAGTCGACTGTCATTCGAAC'
p2019
ag3
(g7
S'\x00\x00\x00\x00v\x86gA'
p2020
tp2021
Rp2022
aa(lp2023
S'TAGGGTCATACATCAGGCGTGAAGT'
p2024
ag3
(g7
S'\x01\x00\x00\x00i\x91yA'
p2025
tp2026
Rp2027
aa(lp2028
S'ATTCACTGCGCTTCTTAGAATCGGC'
p2029
ag3
(g7
S'\xff\xff\xff\xffK\xb7pA'
p2030
tp2031
Rp2032
aa(lp2033
S'TCACATCCCCTTTTCGCAGTAATGC'
p2034
ag3
(g7
S'\x00\x00\x00\x80\xd2\x1c\x83A'
p2035
tp2036
Rp2037
aa(lp2038
S'GTGGATAAACTGGCAAACGCCATCT'
p2039
ag3
(g7
S'\x00\x00\x00\x004,sA'
p2040
tp2041
Rp2042
aa(lp2043
S'TCGTCTTTGTTCATCAAGCTTGGCT'
p2044
ag3
(g7
S'\x00\x00\x00\x00\xee\x13\x82A'
p2045
tp2046
Rp2047
aa(lp2048
S'GGGTACCACATCACTCCGGTAATGG'
p2049
ag3
(g7
S'\xaa\xaa\xaa\xaa\x9a\x01EA'
p2050
tp2051
Rp2052
aa(lp2053
S'AAACACTCAGAGGTCTACGCGATCA'
p2054
ag3
(g7
S'\xff\xff\xff\xffAq\x85A'
p2055
tp2056
Rp2057
aa(lp2058
S'CTGAAGAATAAGGGCTCGCCATCCT'
p2059
ag3
(g7
S'\x00\x00\x00\x00\xe4b\x83A'
p2060
tp2061
Rp2062
aa(lp2063
S'AACTAACTCAGCTGCCAGGCAGTAG'
p2064
ag3
(g7
S'\x00\x00\x00\x00\xf1\x98{A'
p2065
tp2066
Rp2067
aa(lp2068
S'AATCCCCGAACAATGGTCTGTGAGG'
p2069
ag3
(g7
S'\x00\x00\x00\x00R\x80iA'
p2070
tp2071
Rp2072
aa(lp2073
S'ACGTCTCGTTATGTTGTGCAGTGTT'
p2074
ag3
(g7
S'\x00\x00\x00\x802\xf5\x86A'
p2075
tp2076
Rp2077
aa(lp2078
S'GTACTGCCCATGCAGAAAAAAGGCT'
p2079
ag3
(g7
S'\x00\x00\x00\x0067\x7fA'
p2080
tp2081
Rp2082
aa(lp2083
S'CTTCCGTCTTGAACGCCACTTGAAA'
p2084
ag3
(g7
S'\x00\x00\x00\x00\x93\xf5|A'
p2085
tp2086
Rp2087
aa(lp2088
S'ATCAGAGGGTGAAGGGTCTTTCCCA'
p2089
ag3
(g7
S'\xab\xaa\xaa\xaa\xa2)LA'
p2090
tp2091
Rp2092
aa(lp2093
S'AGAATCTTAGAAATCGCAGCGCGAA'
p2094
ag3
(g7
S'\xab\xaa\xaa\xaa\xf9\xca~A'
p2095
tp2096
Rp2097
aa(lp2098
S'AGGAACCGTATCAGGGACCTCCTTA'
p2099
ag3
(g7
S'\x00\x00\x00\x00\xf4G^A'
p2100
tp2101
Rp2102
aa(lp2103
S'GTGGACGTCGGATGCACTCTTATTG'
p2104
ag3
(g7
S'\x00\x00\x00\x0028xA'
p2105
tp2106
Rp2107
aa(lp2108
S'TCGGCTCAATTCCATGCGTAAACTT'
p2109
ag3
(g7
S'\xff\xff\xff\xff\xa4\xf8{A'
p2110
tp2111
Rp2112
aa(lp2113
S'GTGGTGACCTCGATGTCGGAAGTAA'
p2114
ag3
(g7
S'\x00\x00\x00\x00U\xee\x81A'
p2115
tp2116
Rp2117
aa(lp2118
S'GCTTCCACCCACACTTAATTCGAGC'
p2119
ag3
(g7
S'\x00\x00\x00\x80P\x08\x83A'
p2120
tp2121
Rp2122
aa(lp2123
S'CAGGCAACCTTATTGGTTTGGTCCG'
p2124
ag3
(g7
S'\x00\x00\x00\x00\xc8CrA'
p2125
tp2126
Rp2127
aa(lp2128
S'CCACGATTTCGGTGTAGTTACGTCC'
p2129
ag3
(g7
S'\x00\x00\x00\x00\xee\xbfoA'
p2130
tp2131
Rp2132
aa(lp2133
S'GGGCCTTGGGAGAGTTACACTGATG'
p2134
ag3
(g7
S'\x00\x00\x00\x00\x86T\x81A'
p2135
tp2136
Rp2137
aa(lp2138
S'AGATCAAGACTGATTGCCAGCTCCA'
p2139
ag3
(g7
S'\x00\x00\x00\x00\x92\xa5xA'
p2140
tp2141
Rp2142
aa(lp2143
S'GTCAGGCTCCAATGCTCTCGAATTG'
p2144
ag3
(g7
S'\x00\x00\x00\x00\x08\xd4tA'
p2145
tp2146
Rp2147
aa(lp2148
S'AAGCTGATTTGGAGGTACAGCAGCT'
p2149
ag3
(g7
S'\xac\xaa\xaa\xaa*1\x0eA'
p2150
tp2151
Rp2152
aa(lp2153
S'GTGAAGGGTCACCGCACTTAGGATT'
p2154
ag3
(g7
S'\x00\x00\x00\x00\xd0\x95rA'
p2155
tp2156
Rp2157
aa(lp2158
S'TCTTAACGCGTCAACAGTAACCGTT'
p2159
ag3
(g7
S'\x00\x00\x00\x00@}ZA'
p2160
tp2161
Rp2162
aa(lp2163
S'CTTCGTACCACCGACAAGGTTGTTC'
p2164
ag3
(g7
S'\x00\x00\x00\x00\xee\xe9hA'
p2165
tp2166
Rp2167
aa(lp2168
S'TGCAGTGCACGTATTATATCGCAGA'
p2169
ag3
(g7
S'\x00\x00\x00\x00\xb6\xabfA'
p2170
tp2171
Rp2172
aa(lp2173
S'GTTTGGGGTATTTGCTTCGTGGGTC'
p2174
ag3
(g7
S'\x00\x00\x00`\xa0G\xa2A'
p2175
tp2176
Rp2177
aa(lp2178
S'GCACACTGGGGATAGTGTTATCCGA'
p2179
ag3
(g7
S'\x00\x00\x00\x00\xe8\x8bcA'
p2180
tp2181
Rp2182
aa(lp2183
S'AAGCGGTTGGCCCTATACATAGACG'
p2184
ag3
(g7
S'\xff\xff\xff\xff\x15\x19gA'
p2185
tp2186
Rp2187
aa(lp2188
S'TGGGTCCTTCTAATGCGGAAACCTA'
p2189
ag3
(g7
S'\x00\x00\x00\x00\xe0\x0f*A'
p2190
tp2191
Rp2192
aa(lp2193
S'ACGGCGTCACTTACTACTTAGGTGT'
p2194
ag3
(g7
S'\x00\x00\x00\x00\xb2XmA'
p2195
tp2196
Rp2197
aa(lp2198
S'CTTTCGGTACACCCCGGCAATAATG'
p2199
ag3
(g7
S'\x00\x00\x00\x00\xd6\x1dqA'
p2200
tp2201
Rp2202
aa(lp2203
S'GTGCCAGATAGACGGACGGGTTAAT'
p2204
ag3
(g7
S'\x00\x00\x00\x00\x8eR\x7fA'
p2205
tp2206
Rp2207
aa(lp2208
S'AAGCAACTCGCAGATGGGATTAGGT'
p2209
ag3
(g7
S'\x00\x00\x00\x80\xc9\xe5\x81A'
p2210
tp2211
Rp2212
aa(lp2213
S'TCGCCGTTTTGAGTTTCAAGGTCTT'
p2214
ag3
(g7
S'\xff\xff\xff\xff\xc9xwA'
p2215
tp2216
Rp2217
aa(lp2218
S'GGCTAAGAAGTCAAGGGACGACACT'
p2219
ag3
(g7
S'\x00\x00\x00\x00\xd1PzA'
p2220
tp2221
Rp2222
aa(lp2223
S'TCATCAGTCCAGAGATTAGCGTCGT'
p2224
ag3
(g7
S'\x00\x00\x00\x804\xbf\x88A'
p2225
tp2226
Rp2227
aa(lp2228
S'ACAAATGTGCATCAGTCTGCCAGAC'
p2229
ag3
(g7
S'\x01\x00\x00\x00\x8a}aA'
p2230
tp2231
Rp2232
aa(lp2233
S'CGGAACGATTGTAGTGTGGTCAACC'
p2234
ag3
(g7
S'\x00\x00\x00\x00Z\xd2iA'
p2235
tp2236
Rp2237
aa(lp2238
S'TCTCATCCTATACCGGCGATTCGAG'
p2239
ag3
(g7
S'\x00\x00\x00\x00F/rA'
p2240
tp2241
Rp2242
aa(lp2243
S'GAGAATCGCCGGCTATTGTCTTTGA'
p2244
ag3
(g7
S'\x00\x00\x00\x00\xac\x8ftA'
p2245
tp2246
Rp2247
aa(lp2248
S'GGCTTAGTGATTTCTCGGGTGGGTT'
p2249
ag3
(g7
S'\x00\x00\x00\x00j\x0b\x97A'
p2250
tp2251
Rp2252
aa(lp2253
S'CCGGAGTCCATCGTTCACTTTTCAC'
p2254
ag3
(g7
S'\x00\x00\x00\x80\xee\x11\x8bA'
p2255
tp2256
Rp2257
aa(lp2258
S'ACAGTGCTGTTTGGTCACCATAACG'
p2259
ag3
(g7
S'\x00\x00\x00\x00\xa4=dA'
p2260
tp2261
Rp2262
aa(lp2263
S'GCAACATTTGGAGAGCAAGGTACGA'
p2264
ag3
(g7
S'\x00\x00\x00\x00TttA'
p2265
tp2266
Rp2267
aa(lp2268
S'CCATCCGGTAGCTGCAGCCTTATAA'
p2269
ag3
(g7
S'\x00\x00\x00\x00s\xd7tA'
p2270
tp2271
Rp2272
aa(lp2273
S'CGAACAGCGACTACCAAAACCCATA'
p2274
ag3
(g7
S'\x00\x00\x00\x80\x00?\x93A'
p2275
tp2276
Rp2277
aa(lp2278
S'GTATGGAAGAAGTTTGATGCCGCCA'
p2279
ag3
(g7
S"\xff\xff\xff\xff\x1a'xA"
p2280
tp2281
Rp2282
aa(lp2283
S'GGATGGGGTATACAGATGCCTCGTG'
p2284
ag3
(g7
S'\x00\x00\x00\x00\xe5\xb2wA'
p2285
tp2286
Rp2287
aa(lp2288
S'CTTCGAGTATCTCTCGGTTGTTGCG'
p2289
ag3
(g7
S'\x00\x00\x00\x00\x8a)\x7fA'
p2290
tp2291
Rp2292
aa(lp2293
S'GAGCATCAACGATCCCCTGATTCCT'
p2294
ag3
(g7
S'\x00\x00\x00\x00\xa8fdA'
p2295
tp2296
Rp2297
aa(lp2298
S'CCAACGAAGTTAGCGCAGGGTTTAT'
p2299
ag3
(g7
S'\x00\x00\x00\x00\xe6,uA'
p2300
tp2301
Rp2302
aa(lp2303
S'GGTACCTTGAAGAGAACCGGGTGAC'
p2304
ag3
(g7
S'\x00\x00\x00\x00\x8e\xe7kA'
p2305
tp2306
Rp2307
aa(lp2308
S'CGGTCTCCACGTATCGAAGCTATCT'
p2309
ag3
(g7
S'\x00\x00\x00\x00%CzA'
p2310
tp2311
Rp2312
aa(lp2313
S'CACCCTCTCTGTCGATTTGTGGACT'
p2314
ag3
(g7
S'\x00\x00\x00\x00\xa4~~A'
p2315
tp2316
Rp2317
aa(lp2318
S'GGGCATAGTCTCAGGCGACTATTGA'
p2319
ag3
(g7
S'\x01\x00\x00\x00\x10&eA'
p2320
tp2321
Rp2322
aa(lp2323
S'CGCATACCCAGAGCCCGTTATACTT'
p2324
ag3
(g7
S'\x00\x00\x00\x00\x0f\xacwA'
p2325
tp2326
Rp2327
aa(lp2328
S'CCTATAACCAAAGCGAAGACGCCAG'
p2329
ag3
(g7
S'\x00\x00\x00\x80zl\x86A'
p2330
tp2331
Rp2332
aa(lp2333
S'CGCGTTCAACAGTAGAGCAAAATCG'
p2334
ag3
(g7
S'\x00\x00\x00\x00\xbe\x92\x83A'
p2335
tp2336
Rp2337
aa(lp2338
S'GAGCTCCGAACTACCCACAATCTCA'
p2339
ag3
(g7
S'\x00\x00\x00\x00\xd0\x00vA'
p2340
tp2341
Rp2342
aa(lp2343
S'CTCGCTTCGCTGATTGCGAATAAAG'
p2344
ag3
(g7
S'\x00\x00\x00\x00\xc4\x85eA'
p2345
tp2346
Rp2347
aa(lp2348
S'ATTCGTCGATTTGGCATCGCTATGA'
p2349
ag3
(g7
S'\x00\x00\x00\x00\x90\x05pA'
p2350
tp2351
Rp2352
aa(lp2353
S'CATTACACTAAGTGACTCACGCGCT'
p2354
ag3
(g7
S'\xff\xff\xff\x7f= \x83A'
p2355
tp2356
Rp2357
aa(lp2358
S'AACAGGCAGTTGTGTTTGTGCCATT'
p2359
ag3
(g7
S'\xe48\x8e\xe3xs7A'
p2360
tp2361
Rp2362
aa(lp2363
S'CACCGAGCTTACCGACTGCTAAAAG'
p2364
ag3
(g7
S'\x01\x00\x00\x00MrxA'
p2365
tp2366
Rp2367
aa(lp2368
S'GCGACGGAATGAGATTAGTAGCTGC'
p2369
ag3
(g7
S'\x00\x00\x00\x00L\x8dWA'
p2370
tp2371
Rp2372
aa(lp2373
S'TGAGTAGTTGATGCGAGATGCCCTT'
p2374
ag3
(g7
S'\xff\xff\xff\x7f\xfbq\x8cA'
p2375
tp2376
Rp2377
aa(lp2378
S'ACTCTTAACTCTGATCCTGCTGCGA'
p2379
ag3
(g7
S'\x00\x00\x00\x00&\xe7\x90A'
p2380
tp2381
Rp2382
aa(lp2383
S'CAACAATGGGATGTAGCTGCACCAG'
p2384
ag3
(g7
S'\x00\x00\x00\x00\x96ceA'
p2385
tp2386
Rp2387
aa(lp2388
S'CGAACCATCACCGGCATAACTCAAG'
p2389
ag3
(g7
S'\x00\x00\x00\x00s\xd7\x84A'
p2390
tp2391
Rp2392
aa(lp2393
S'GCAGCAATGACATCATGAAACGCTC'
p2394
ag3
(g7
S'\x01\x00\x00\x00piLA'
p2395
tp2396
Rp2397
aa(lp2398
S'CCACAAGAAGAGAGTGCGCTACATG'
p2399
ag3
(g7
S'\x00\x00\x00\x00`\x84qA'
p2400
tp2401
Rp2402
aa(lp2403
S'CAGCCGTATAACTTAGAACGAGCGG'
p2404
ag3
(g7
S'\x00\x00\x00\x00\xf8\xc4PA'
p2405
tp2406
Rp2407
aa(lp2408
S'CTACCGGGGGAGGACATAAAGGTCT'
p2409
ag3
(g7
S'\x00\x00\x00\x00\xb0MaA'
p2410
tp2411
Rp2412
aa(lp2413
S'TCGAGGTGAGACCCAGTTAACGTAC'
p2414
ag3
(g7
S'\xaa\xaa\xaa\xaa\\\xa6gA'
p2415
tp2416
Rp2417
aa(lp2418
S'GGCAGAAAATTCCCGAGAGATTGGC'
p2419
ag3
(g7
S'\x00\x00\x00\x00\x82\x96tA'
p2420
tp2421
Rp2422
aa(lp2423
S'GGTCGTTCCTAGCCAACTCTTGACT'
p2424
ag3
(g7
S'\x00\x00\x00\x00\xac$QA'
p2425
tp2426
Rp2427
aa(lp2428
S'GCGGAAGGAGTATTCCCTTGCTGAT'
p2429
ag3
(g7
S'\x00\x00\x00\x00\x08\xaa[A'
p2430
tp2431
Rp2432
aa(lp2433
S'GCCAATAGCGGAATCTACATGTGGC'
p2434
ag3
(g7
S'\xe38\x8e\xe3\xb8-#A'
p2435
tp2436
Rp2437
aa(lp2438
S'TACAGCCAGCCAGAATAACAAGCAC'
p2439
ag3
(g7
S'\xff\xff\xff\xffm\xc9sA'
p2440
tp2441
Rp2442
aa(lp2443
S'CGCGTCTTCACATAGCCGAAAGTAT'
p2444
ag3
(g7
S'\x00\x00\x00\x00*\x10qA'
p2445
tp2446
Rp2447
aa(lp2448
S'CCAAAGTACGTGGGGACCTCTGATC'
p2449
ag3
(g7
S'\x01\x00\x00\x00a?yA'
p2450
tp2451
Rp2452
aa(lp2453
S'CCGAGCATACTCACCTAAATTGCCG'
p2454
ag3
(g7
S'\xab\xaa\xaa\xaa\x06\xeaUA'
p2455
tp2456
Rp2457
aa(lp2458
S'CAGTTACTTCTGACATGAAGGCGCA'
p2459
ag3
(g7
S'\x00\x00\x00\x00\xcaNnA'
p2460
tp2461
Rp2462
aa(lp2463
S'CACATGGGAATGTAGACGTTGGCAG'
p2464
ag3
(g7
S'\x00\x00\x00\x00CVvA'
p2465
tp2466
Rp2467
aa(lp2468
S'AATATAATTCTGTGAGCCGGTGCGC'
p2469
ag3
(g7
S'\x00\x00\x00\x00\xf0r\x80A'
p2470
tp2471
Rp2472
aa(lp2473
S'TTTGTTTAAAAGACCCCCGCGAACC'
p2474
ag3
(g7
S'\x00\x00\x00\x00\x83{uA'
p2475
tp2476
Rp2477
aa(lp2478
S'TATTGGATCGCAGAGTGCAATGTCA'
p2479
ag3
(g7
S'\x01\x00\x00\x000nVA'
p2480
tp2481
Rp2482
aa(lp2483
S'CTGTCATGGGTAAAGCAACGGACAC'
p2484
ag3
(g7
S'\xe48\x8e\xe3\xf8R2A'
p2485
tp2486
Rp2487
aa(lp2488
S'CTGTAGCACACCGTAACTTGTGGTG'
p2489
ag3
(g7
S'\x00\x00\x00\x00\xa4~^A'
p2490
tp2491
Rp2492
aa(lp2493
S'GTCTGCGATAGGCTACCCTATGACG'
p2494
ag3
(g7
S'\x00\x00\x00\x00\x9a!bA'
p2495
tp2496
Rp2497
aa(lp2498
S'GGGAGGTAGGGGCAGCGATAATTTA'
p2499
ag3
(g7
S'\x00\x00\x00\x00\x90F\x9aA'
p2500
tp2501
Rp2502
aa(lp2503
S'CTCGCAAGGTATTTTCGCGGTTTTA'
p2504
ag3
(g7
S'\x00\x00\x00\x00\xca\xe3jA'
p2505
tp2506
Rp2507
aa(lp2508
S'CCAACAGCTGGGATAAAGGCTGGAA'
p2509
ag3
(g7
S'\x00\x00\x00\x00(\xf2LA'
p2510
tp2511
Rp2512
aa(lp2513
S'GTAGTCGGGTAAAAGGGGATCACCG'
p2514
ag3
(g7
S'\x00\x00\x00\x00\x80\xa2iA'
p2515
tp2516
Rp2517
aa(lp2518
S'CCAGCCGCTAGCAGAAATGTGATAC'
p2519
ag3
(g7
S'\x00\x00\x00\x00\xa9KuA'
p2520
tp2521
Rp2522
aa(lp2523
S'GTAGCGAGGTTGGCCGCTTTATAAG'
p2524
ag3
(g7
S'\x00\x00\x00\x00D;gA'
p2525
tp2526
Rp2527
aa(lp2528
S'GGTCTCCGCTCGGTGTTACCTATAC'
p2529
ag3
(g7
S'\x00\x00\x00\x00G\x7fvA'
p2530
tp2531
Rp2532
aa(lp2533
S'CTAGCTTTACAGCACGAGAGAAGCG'
p2534
ag3
(g7
S'\x00\x00\x00\x00\x92\xcfqA'
p2535
tp2536
Rp2537
aa(lp2538
S'GTATATGCCCCCCACACCTGACATG'
p2539
ag3
(g7
S'\xff\xff\xff\xff\r\x9dmA'
p2540
tp2541
Rp2542
aa(lp2543
S'AGTGTTTGGCGAAAGTGAACATCCA'
p2544
ag3
(g7
S'\x00\x00\x00\x00\x10\xfc[A'
p2545
tp2546
Rp2547
aa(lp2548
S'AGAACCTACGATTCGGTGAGAGCTC'
p2549
ag3
(g7
S'\xff\xff\xff\xff\xad\xeebA'
p2550
tp2551
Rp2552
aa(lp2553
S'CTCCTGTCGAGATCGTAACACAGGT'
p2554
ag3
(g7
S'\r\xa5:\x81\x101\xc2@'
p2555
tp2556
Rp2557
aa(lp2558
S'ACCTAGGACAATAGGCAGAAAGGCG'
p2559
ag3
(g7
S'\x00\x00\x00\x00\xa8<{A'
p2560
tp2561
Rp2562
aa(lp2563
S'CATAATACAGCAGGGGTCGGCTAGG'
p2564
ag3
(g7
S'\x00\x00\x00\x00qxvA'
p2565
tp2566
Rp2567
aa(lp2568
S'AGTCAAAGTTTGACGGCGGAGATTC'
p2569
ag3
(g7
S'\x00\x00\x00\x00g\\tA'
p2570
tp2571
Rp2572
aa(lp2573
S'GCCCTGCACTCGATTCCTAAGGAAA'
p2574
ag3
(g7
S'\x00\x00\x00\x00\xbaisA'
p2575
tp2576
Rp2577
aa(lp2578
S'TCCAGAGACTTAATTAGTCCGCGGG'
p2579
ag3
(g7
S'UUUUu\xa6$A'
p2580
tp2581
Rp2582
aa(lp2583
S'GAGCTATTTGCGAGGGCATGAGATG'
p2584
ag3
(g7
S'\x00\x00\x00\x0067\x7fA'
p2585
tp2586
Rp2587
aa(lp2588
S'CGGATGATGGGCAGACCTAATCCAG'
p2589
ag3
(g7
S'8\x8e\xe38N\x05(A'
p2590
tp2591
Rp2592
aa(lp2593
S'TTACTGCGAGACTTGCAGGCTAGTT'
p2594
ag3
(g7
S'\x00\x00\x00\x00\xd0\xd6lA'
p2595
tp2596
Rp2597
aa(lp2598
S'AATAAGGGAGAGTGTGCGGTGTTCA'
p2599
ag3
(g7
S'\x00\x00\x00\xc01N\x90A'
p2600
tp2601
Rp2602
aa(lp2603
S'AAGGATCGTATTTGCTTTGGGACGC'
p2604
ag3
(g7
S'\x00\x00\x00\x00d\x83hA'
p2605
tp2606
Rp2607
aa(lp2608
S'CTTCTGTGCCTTCTCATCGAACTGC'
p2609
ag3
(g7
S'\x00\x00\x00\x00\x88\x1esA'
p2610
tp2611
Rp2612
aa(lp2613
S'CCCCTTACGGAGGAAAATGGGCTAC'
p2614
ag3
(g7
S'\x00\x00\x00\x00\xf4\x06dA'
p2615
tp2616
Rp2617
aa(lp2618
S'CGCTCGCGGTCTATATTATCAAGCC'
p2619
ag3
(g7
S'UUUUu;aA'
p2620
tp2621
Rp2622
aa(lp2623
S'GGTCTTACCGGGAAATAGCGAAACG'
p2624
ag3
(g7
S'\xff\xff\xff\xffj\x1a\x81A'
p2625
tp2626
Rp2627
aa(lp2628
S'CCCATTGAGCGCAAATACAGACTCC'
p2629
ag3
(g7
S'\x00\x00\x00\x00\x8f\xf6uA'
p2630
tp2631
Rp2632
aa(lp2633
S'CGAGATAGTACACGAGCCGGTATGA'
p2634
ag3
(g7
S'\x01\x00\x00\x00\xc35\x81A'
p2635
tp2636
Rp2637
aa(lp2638
S'CAACCCCCTGTCTATTGTGAGAGCC'
p2639
ag3
(g7
S'\x00\x00\x00\x80@d\x82A'
p2640
tp2641
Rp2642
aa(lp2643
S'TACTACATCCCGTTCTGTACGGGTC'
p2644
ag3
(g7
S'\xab\xaa\xaa\xaa\xaa\x10YA'
p2645
tp2646
Rp2647
aa(lp2648
S'ACCACCTCGTACCGATCACATAGTG'
p2649
ag3
(g7
S'\x00\x00\x00\x00V\xa9yA'
p2650
tp2651
Rp2652
aa(lp2653
S'ATTGCACTCTATGGTGCCACTCGAT'
p2654
ag3
(g7
S'\x00\x00\x00\x00\xfe"vA'
p2655
tp2656
Rp2657
aa(lp2658
S'AGTCACGTAGCCAAGCACTACTACC'
p2659
ag3
(g7
S'\x00\x00\x00\x00\xd0\x95bA'
p2660
tp2661
Rp2662
aa(lp2663
S'AGGGACTAGCAGCGTAACGTGTAAA'
p2664
ag3
(g7
S'\x00\x00\x00\x00H\x8e\x80A'
p2665
tp2666
Rp2667
aa(lp2668
S'GTATCACTCAGGGCTCCTCTGGTCT'
p2669
ag3
(g7
S'\x00\x00\x00\x00-*wA'
p2670
tp2671
Rp2672
aa(lp2673
S'TGGCCACTCGGGATTTCACAAATTC'
p2674
ag3
(g7
S'\x00\x00\x00\x00\x1bQqA'
p2675
tp2676
Rp2677
aa(lp2678
S'CATTGAAGATGTGTAGCGATGGGCA'
p2679
ag3
(g7
S'\x00\x00\x00\x00p\xd4_A'
p2680
tp2681
Rp2682
aa(lp2683
S'GGTTGGGATCGTAAGAGGCGTACTT'
p2684
ag3
(g7
S'\x00\x00\x00\x00\x154\x86A'
p2685
tp2686
Rp2687
aa(lp2688
S'TGGATGGGAGCGCAGAATTAAATCG'
p2689
ag3
(g7
S'\x00\x00\x00\x00\x92{\x8fA'
p2690
tp2691
Rp2692
aa(lp2693
S'TAGCGGATCCTAAGGAACACGTGAA'
p2694
ag3
(g7
S'\x00\x00\x00\x00\x1ekgA'
p2695
tp2696
Rp2697
aa(lp2698
S'GCTTGAAACGCTGCTTAAACATGCT'
p2699
ag3
(g7
S'\xaa\xaa\xaa\xaa\x9e\x95hA'
p2700
tp2701
Rp2702
aa(lp2703
S'CTAACTCTACTCCGGGGAATTCCGC'
p2704
ag3
(g7
S'\x00\x00\x00\x00N\xec\x85A'
p2705
tp2706
Rp2707
aa(lp2708
S'GGCAGTCTCGTACGGGAACTTACTT'
p2709
ag3
(g7
S'\x00\x00\x00\x00B\xb2oA'
p2710
tp2711
Rp2712
aa(lp2713
S'GCAGCTAAGTCGACTCAGAGACTCA'
p2714
ag3
(g7
S'\x00\x00\x00\x00\xf1WqA'
p2715
tp2716
Rp2717
aa(lp2718
S'AGCGTCGATAGGGGTTAACGTTAGA'
p2719
ag3
(g7
S'\x00\x00\x00\x00\xf8\xc4`A'
p2720
tp2721
Rp2722
aa(lp2723
S'CCGGCGTATTCGCTTACTTCATAGG'
p2724
ag3
(g7
S'\x01\x00\x00\x00\x84`fA'
p2725
tp2726
Rp2727
aa(lp2728
S'CGAAGCTTTGATGGGAGTCCCTTCT'
p2729
ag3
(g7
S'\x00\x00\x00\x00\xa8\xfbpA'
p2730
tp2731
Rp2732
aa(lp2733
S'CCTCCCTAGTGCACCATCTGTATGC'
p2734
ag3
(g7
S'\x00\x00\x00\x00\x91\xc0wA'
p2735
tp2736
Rp2737
aa(lp2738
S'AACCGGGGGTCGAATGGATAACATC'
p2739
ag3
(g7
S'\xaa\xaa\xaa\xaa\xberVA'
p2740
tp2741
Rp2742
aa(lp2743
S'CGCTGAGTACGTGTCTCCCCATATA'
p2744
ag3
(g7
S'\x00\x00\x00\x00\xe3}\x82A'
p2745
tp2746
Rp2747
aa(lp2748
S'CGTTTGCTAACTTTTTCCCCGCATG'
p2749
ag3
(g7
S'\x00\x00\x00\x00\x9b\x06sA'
p2750
tp2751
Rp2752
aa(lp2753
S'CGTTTTCAAGGATTTAGCAACGCGA'
p2754
ag3
(g7
S'\x00\x00\x00\x00`0?A'
p2755
tp2756
Rp2757
aa(lp2758
S'TCCCGAAGGCTCCATTAGGTGTTTA'
p2759
ag3
(g7
S'\xff\xff\xff\xff\xe9\x96oA'
p2760
tp2761
Rp2762
aa(lp2763
S'CATACGAGCCTCTCAAAGCCATTCG'
p2764
ag3
(g7
S'\x00\x00\x00\x00\x12\x85cA'
p2765
tp2766
Rp2767
aa(lp2768
S'ATTCGGCATCTGGAGGCATCTTACA'
p2769
ag3
(g7
S'\x00\x00\x00\x80\x83\xcd\x80A'
p2770
tp2771
Rp2772
aa(lp2773
S'GGAGGTGAGGATACGGAGGGATGTT'
p2774
ag3
(g7
S'\x00\x00\x00`\xf2o\xa0A'
p2775
tp2776
Rp2777
aa(lp2778
S'TCAGTCACACTTAGAGGTGCGGTAG'
p2779
ag3
(g7
S'\x00\x00\x00\x00_\x9fpA'
p2780
tp2781
Rp2782
aa(lp2783
S'GACACTGGCTAGGTGACTGTGAGAC'
p2784
ag3
(g7
S'\xab\xaa\xaa\xaan\x14ZA'
p2785
tp2786
Rp2787
aa(lp2788
S'CACACTAACAGCGGTCACGTTACTA'
p2789
ag3
(g7
S'\x00\x00\x00\x00f\x0cpA'
p2790
tp2791
Rp2792
aa(lp2793
S'AACACCGGAGTAAGGAAAGGCTACG'
p2794
ag3
(g7
S'\x00\x00\x00\x00c\xc8pA'
p2795
tp2796
Rp2797
aa(lp2798
S'ACAATGACGATCTTACGCGGAAAGT'
p2799
ag3
(g7
S'\x00\x00\x00\x80\x06\xc7\x81A'
p2800
tp2801
Rp2802
aa(lp2803
S'GAGAAAGGTATCCAACAGCCAGGCT'
p2804
ag3
(g7
S'\x00\x00\x00\x00+6|A'
p2805
tp2806
Rp2807
aa(lp2808
S'GCTCCACTGGACCTTGATCTTCAGG'
p2809
ag3
(g7
S'\xaa\xaa\xaa\xaa\xe66QA'
p2810
tp2811
Rp2812
aa(lp2813
S'AATCATGTGAGTTTCGACGCGCTAA'
p2814
ag3
(g7
S'\x00\x00\x00\x00h\xd6qA'
p2815
tp2816
Rp2817
aa(lp2818
S'ACACGACGGTCCATAAGATCCAGTA'
p2819
ag3
(g7
S'\x00\x00\x00\x00:\xf5kA'
p2820
tp2821
Rp2822
aa(lp2823
S'CGTCGCAATGTAGGTGACTCCAATC'
p2824
ag3
(g7
S'\x00\x00\x00\x00\\\xc6tA'
p2825
tp2826
Rp2827
aa(lp2828
S'GCGCTACCACTAGCAAAGTCTTTGT'
p2829
ag3
(g7
S'\x00\x00\x00\x00$\xf3eA'
p2830
tp2831
Rp2832
aa(lp2833
S'GGAGGGGTTAACGTAACACTCTCGT'
p2834
ag3
(g7
S'\x00\x00\x00\x00\x08iQA'
p2835
tp2836
Rp2837
aa(lp2838
S'GCTGAGTCTCGATGCGAAGAATCTG'
p2839
ag3
(g7
S'\xff\xff\xff\xffg\x17LA'
p2840
tp2841
Rp2842
aa(lp2843
S'CGAGAAGCGTTCGGTCACTAACTTA'
p2844
ag3
(g7
S'\x00\x00\x00\x00\xb8\x9fqA'
p2845
tp2846
Rp2847
aa(lp2848
S'ACCAGCTCCGGCTTTTATTCTCCAA'
p2849
ag3
(g7
S'\xff\xff\xff\xff\xe5,\x85A'
p2850
tp2851
Rp2852
aa(lp2853
S'AGTCCAATTCTCCGACCAGACACTG'
p2854
ag3
(g7
S'\x00\x00\x00\x00\x18xUA'
p2855
tp2856
Rp2857
aa(lp2858
S'GCAAAGGTCTTCATCCGGCGATATC'
p2859
ag3
(g7
S'\x00\x00\x00\x00V\xa9yA'
p2860
tp2861
Rp2862
aa(lp2863
S'GAGGTCATACTATCGCGAGAGCACT'
p2864
ag3
(g7
S'\x00\x00\x00\x00\x8e\xe7{A'
p2865
tp2866
Rp2867
aa(lp2868
S'TTCCAACTGTATGGAGTACCCGGGA'
p2869
ag3
(g7
S'\x00\x00\x00\x00v\x86gA'
p2870
tp2871
Rp2872
aa(lp2873
S'CCCATTTCATAATCGAGCGAGCGAT'
p2874
ag3
(g7
S'\x00\x00\x00\x00\xe2nxA'
p2875
tp2876
Rp2877
aa(lp2878
S'CGGGGTGGATTCCCAAAAAGAAAGC'
p2879
ag3
(g7
S'\x00\x00\x00\x00%\xae\x8dA'
p2880
tp2881
Rp2882
aa(lp2883
S'GGTGGCTTGGACCATTGAACCAAAG'
p2884
ag3
(g7
S'\x00\x00\x00\x00\xfe\xf8lA'
p2885
tp2886
Rp2887
aa(lp2888
S'ACTTTCCCTTGGTGAAGCTCCATCC'
p2889
ag3
(g7
S'\x00\x00\x00\x804\xbf\x88A'
p2890
tp2891
Rp2892
aa(lp2893
S'CATTTGTAGGGGCGTGATATGAGCG'
p2894
ag3
(g7
S'\x00\x00\x00\x80\xbb\x0b\x83A'
p2895
tp2896
Rp2897
aa(lp2898
S'CTGCCCTGTAACATGTCTTCGTGTG'
p2899
ag3
(g7
S'\x00\x00\x00\x00~\xae~A'
p2900
tp2901
Rp2902
aa(lp2903
S'CGCATGTCTATTGAATGCAGGGGTC'
p2904
ag3
(g7
S'\x00\x00\x00\x00_\ntA'
p2905
tp2906
Rp2907
aa(lp2908
S'AGTGTCATGAATGTCTTCGGACCCA'
p2909
ag3
(g7
S'\xaa\xaa\xaa\xaa*[GA'
p2910
tp2911
Rp2912
aa(lp2913
S'TTCTGCTGCTATACCCCACCTAGCT'
p2914
ag3
(g7
S'\x01\x00\x00\x00\x8c\x88mA'
p2915
tp2916
Rp2917
aa(lp2918
S'TTTCTGAAAAGGAACGGCACACGAG'
p2919
ag3
(g7
S'\xab\xaa\xaa\xaa\xf89`A'
p2920
tp2921
Rp2922
aa(lp2923
S'CCGTCATTTACCCTATTTGGCGCAA'
p2924
ag3
(g7
S'\x01\x00\x00\x00\xa4~^A'
p2925
tp2926
Rp2927
aa(lp2928
S'CAAATCTCGACGAGTCCTGCCTTTC'
p2929
ag3
(g7
S'\x00\x00\x00\x80Y?\x84A'
p2930
tp2931
Rp2932
aa(lp2933
S'CTGGATCGATTCTAAAAACGGCGGA'
p2934
ag3
(g7
S'\x00\x00\x00\x00\x15\x9fyA'
p2935
tp2936
Rp2937
aa(lp2938
S'ATACCACGGTTACTTCCGCTGTGAT'
p2939
ag3
(g7
S'UUUU-/UA'
p2940
tp2941
Rp2942
aa(lp2943
S'GCGACCCATTCTGGTATGGGTCTTT'
p2944
ag3
(g7
S'\xde\xf6\xa9|e\x07\xc1@'
p2945
tp2946
Rp2947
aa(lp2948
S'GCATTGGATAAACCGAGGGAAGTGC'
p2949
ag3
(g7
S'\x00\x00\x00\x00PKtA'
p2950
tp2951
Rp2952
aa(lp2953
S'CCACCTGCGGAGCAATAAACATACC'
p2954
ag3
(g7
S'\x00\x00\x00\x80\xca\xa0\x89A'
p2955
tp2956
Rp2957
aa(lp2958
S'GAAAGTAACAGCTACAGGTTGCGCT'
p2959
ag3
(g7
S'\x00\x00\x00\x00H\xf9sA'
p2960
tp2961
Rp2962
aa(lp2963
S'GGAGCCACCCTCAGAGAGTCAAATG'
p2964
ag3
(g7
S'\x00\x00\x00\x00`\xc5{A'
p2965
tp2966
Rp2967
aa(lp2968
S'AGTGCCCTCCCTCACCAGAGATATC'
p2969
ag3
(g7
S'\x00\x00\x00\x00J\x99lA'
p2970
tp2971
Rp2972
aa(lp2973
S'TATGAGTATCCGCATTCATGGACGC'
p2974
ag3
(g7
S'\x00\x00\x00\x00\xc0\xc7hA'
p2975
tp2976
Rp2977
aa(lp2978
S'GATCACTCAGGACGACCCTGTCATC'
p2979
ag3
(g7
S'\x00\x00\x00\x00\x85\xdasA'
p2980
tp2981
Rp2982
aa(lp2983
S'TGGGGGGACTATCTAGGCTCCATTG'
p2984
ag3
(g7
S'\x00\x00\x00\x00\xdc{fA'
p2985
tp2986
Rp2987
aa(lp2988
S'TTTCACGATTGCTTGTGCGAAGGAA'
p2989
ag3
(g7
S'\x00\x00\x00\x00\x0c\xfddA'
p2990
tp2991
Rp2992
aa(lp2993
S'CGCATCCGCAACTTATGGTTCAGAT'
p2994
ag3
(g7
S'\x00\x00\x00\x00\x18xUA'
p2995
tp2996
Rp2997
aa(lp2998
S'ATCTCATCGTCAAACAGACTCCCCG'
p2999
ag3
(g7
S'\x00\x00\x00\x80\x15\xc7\x8bA'
p3000
tp3001
Rp3002
aa(lp3003
S'CTCGAAAGTATCCATTCGGGGTCCA'
p3004
ag3
(g7
S'\x00\x00\x00\x00\xea+lA'
p3005
tp3006
Rp3007
aa(lp3008
S'CGTTCGCATGTTGTGTTGAACTCAG'
p3009
ag3
(g7
S'\x00\x00\x00\x00\x80\rMA'
p3010
tp3011
Rp3012
aa(lp3013
S'TTACCATCTCCGGTTCACGCAGAAT'
p3014
ag3
(g7
S'\x00\x00\x00\x00\x80\r]A'
p3015
tp3016
Rp3017
aa(lp3018
S'TAGTTACCGCTCGGATCTCGTAGTA'
p3019
ag3
(g7
S'\x00\x00\x00\x00\xe1\xb3pA'
p3020
tp3021
Rp3022
aa(lp3023
S'CACAAATCGCCCAGAGTGTTCTGAG'
p3024
ag3
(g7
S'\x00\x00\x00\x00q\rsA'
p3025
tp3026
Rp3027
aa(lp3028
S'GAACGAGGATGCGGTCACTAACAAG'
p3029
ag3
(g7
S'\x00\x00\x00\x00\xd9\xccsA'
p3030
tp3031
Rp3032
aa(lp3033
S'AGCTTGTGGTGGCAGAAGGTAGTAC'
p3034
ag3
(g7
S'\x00\x00\x00\x00\xf0\xb3jA'
p3035
tp3036
Rp3037
aa(lp3038
S'CCCACAATGTTCGAACAGCCTAACC'
p3039
ag3
(g7
S'\x01\x00\x00\x00)\x96\x83A'
p3040
tp3041
Rp3042
aa(lp3043
S'GGGTCCCTAGCAGAGGACGTTAGAT'
p3044
ag3
(g7
S'\x00\x00\x00\x00\x81FpA'
p3045
tp3046
Rp3047
aa(lp3048
S'GTCCAGCTTGGTCTCCGAGCTATAC'
p3049
ag3
(g7
S'\xaa\xaa\xaa\xaa\x92\xafDA'
p3050
tp3051
Rp3052
aa(lp3053
S'TTTGACCTTTTCGCCTGCTAAAGGC'
p3054
ag3
(g7
S'VUUU\x07\xf4aA'
p3055
tp3056
Rp3057
aa(lp3058
S'CAAGTTGTTTGTACGCCCTCACTCA'
p3059
ag3
(g7
S'\x00\x00\x00\x00\x03\xc6\x83A'
p3060
tp3061
Rp3062
aa(lp3063
S'GTTTGCGGTACATAGGTGCATGGTA'
p3064
ag3
(g7
S'\x00\x00\x00\x00r3~A'
p3065
tp3066
Rp3067
aa(lp3068
S'AGATAGACAAGTCGCAAGTCTCCGT'
p3069
ag3
(g7
S'\x00\x00\x00\x00\x90pcA'
p3070
tp3071
Rp3072
aa(lp3073
S'ACCGGAGCTATATCTGCGCCTTTAA'
p3074
ag3
(g7
S'\x00\x00\x00\x00P\x8cnA'
p3075
tp3076
Rp3077
aa(lp3078
S'TCCTCCCCAATTCCCCTGAACTAGG'
p3079
ag3
(g7
S'\x00\x00\x00\x00\x88_}A'
p3080
tp3081
Rp3082
aa(lp3083
S'CTAGTTTCGCCAAGCAAAGCACAAC'
p3084
ag3
(g7
S'\x00\x00\x00\x00\x8a\xe8dA'
p3085
tp3086
Rp3087
aa(lp3088
S'TGGCGATATTGCAGTCCAAGCAAAT'
p3089
ag3
(g7
S'\x00\x00\x00\x00\xd4\xfflA'
p3090
tp3091
Rp3092
aa(lp3093
S'GAGATCGTTGTGTTTCGCAATGCTC'
p3094
ag3
(g7
S'\x00\x00\x00\x00\xb4vQA'
p3095
tp3096
Rp3097
aa(lp3098
S'GCATTTTCTAACGGCTGAGCAGTCT'
p3099
ag3
(g7
S'\x00\x00\x00\x00\xfe\xb7rA'
p3100
tp3101
Rp3102
aa(lp3103
S'GGGGTGCAGGAGAGTTGACTTAACA'
p3104
ag3
(g7
S'\x00\x00\x00\x80G}\x8fA'
p3105
tp3106
Rp3107
aa(lp3108
S'TCCTGAAATGTTTCCCCCCCGTTAG'
p3109
ag3
(g7
S'\x00\x00\x00\x80\xd9\xca\x8cA'
p3110
tp3111
Rp3112
aa(lp3113
S'TTTAGGTGTGACACAACGGGCTCAT'
p3114
ag3
(g7
S'\x01\x00\x00\x00\xa0\xeazA'
p3115
tp3116
Rp3117
aa(lp3118
S'ATCATATTAGCGGCCCGGATGATCC'
p3119
ag3
(g7
S'UUUUMwFA'
p3120
tp3121
Rp3122
aa(lp3123
S'GACTCTGTGAGGTACCCTTCCCAGA'
p3124
ag3
(g7
S'\x01\x00\x00\x00 \xcaEA'
p3125
tp3126
Rp3127
aa(lp3128
S'TGTCCTTCAAGAGATGGAACACGGT'
p3129
ag3
(g7
S'\x00\x00\x00\x00\xf4\x06dA'
p3130
tp3131
Rp3132
aa(lp3133
S'TAGTAACCTTGGGAACCGTACGGAG'
p3134
ag3
(g7
S'\x00\x00\x00\x00\x0c>oA'
p3135
tp3136
Rp3137
aa(lp3138
S'CGCTTATAAACGACAACGCAGTGTC'
p3139
ag3
(g7
S'\xff\xff\xff\xff\xef\x1enA'
p3140
tp3141
Rp3142
aa(lp3143
S'GCCAACTATTCCGCGATTCTGATGT'
p3144
ag3
(g7
S'\x00\x00\x00\x80w\xbd\x83A'
p3145
tp3146
Rp3147
aa(lp3148
S'GGCGACAATCACTAAGTTGGGTTGG'
p3149
ag3
(g7
S'\x00\x00\x00\x00N\xecuA'
p3150
tp3151
Rp3152
aa(lp3153
S'GTTCGCGAACATCTTTGTAAGTCGC'
p3154
ag3
(g7
S'\x01\x00\x00\x00\xa8fDA'
p3155
tp3156
Rp3157
aa(lp3158
S'GGTTCTTGGTAGATTCGCAGTGCAG'
p3159
ag3
(g7
S'\x00\x00\x00\x00\x81\x87zA'
p3160
tp3161
Rp3162
aa(lp3163
S'TCTCCGTGTTTAATTGTGCATCGGA'
p3164
ag3
(g7
S'\x12\xdaKh/A\xf4@'
p3165
tp3166
Rp3167
aa(lp3168
S'TTAGACCACAGCCGAGCTCAACTAC'
p3169
ag3
(g7
S'\x00\x00\x00\x00\xe8\xcc}A'
p3170
tp3171
Rp3172
aa(lp3173
S'ACGGAAGGTTCCTGTCCGATGATTT'
p3174
ag3
(g7
S'\xff\xff\xff\xff&\xccqA'
p3175
tp3176
Rp3177
aa(lp3178
S'ATTGCAGTTTACCATCGGACCACCT'
p3179
ag3
(g7
S'\x01\x00\x00\x80\xe2U\x80A'
p3180
tp3181
Rp3182
aa(lp3183
S'CTAGCGAGTTGTCACGGGACCTAAA'
p3184
ag3
(g7
S'\x00\x00\x00\x00\x9a\x8cuA'
p3185
tp3186
Rp3187
aa(lp3188
S'TAACGAGTGTATCAGCTGCAAGGTG'
p3189
ag3
(g7
S'\x00\x00\x00\x00\xb4"oA'
p3190
tp3191
Rp3192
aa(lp3193
S'TGTTCGAAGGCTACTATTTCGCGAG'
p3194
ag3
(g7
S'\x00\x00\x00\x00\xcclbA'
p3195
tp3196
Rp3197
aa(lp3198
S'TAAGCGAGTGGAACTGCATAGTGTG'
p3199
ag3
(g7
S'\xff\xff\xff\xff\xb7uxA'
p3200
tp3201
Rp3202
aa(lp3203
S'TGTGCACAGCATGTCATTGGACTAC'
p3204
ag3
(g7
S'\x00\x00\x00\x00T\tQA'
p3205
tp3206
Rp3207
aa(lp3208
S'GACGTTAACGGTCGGTTGAAAGACT'
p3209
ag3
(g7
S'\x00\x00\x00\x00\xc8CbA'
p3210
tp3211
Rp3212
aa(lp3213
S'GACTTCCAAAACGACCGTTGACCTA'
p3214
ag3
(g7
S'\x00\x00\x00\x00\xa8f\x84A'
p3215
tp3216
Rp3217
aa(lp3218
S'GATCATCTGGCCTGTCTCGTTAGGG'
p3219
ag3
(g7
S'\x00\x00\x00\x00i\x91yA'
p3220
tp3221
Rp3222
aa(lp3223
S'ACCGAGTAAAGAGTGAACCGACAGA'
p3224
ag3
(g7
S'\x00\x00\x00\x00I\x1f\x7fA'
p3225
tp3226
Rp3227
aa(lp3228
S'ATGATATCCGGCTTGGACTGCTCAG'
p3229
ag3
(g7
S'\xff\xff\xff\xffy\xd9`A'
p3230
tp3231
Rp3232
aa(lp3233
S'CAGGAGTTGTAGAGTGGTTGGGAGC'
p3234
ag3
(g7
S'\x00\x00\x00\x00\n\t\x9aA'
p3235
tp3236
Rp3237
aa(lp3238
S'CTTACAGTGCACCTGATCCACCTCC'
p3239
ag3
(g7
S'\x00\x00\x00\x00\x0c\xfd\x84A'
p3240
tp3241
Rp3242
aa(lp3243
S'TACCCCCGACACAACATCACTCTTT'
p3244
ag3
(g7
S'\x00\x00\x00\x00\xce\xa1\x97A'
p3245
tp3246
Rp3247
aa(lp3248
S'GCTTTTAGTCTACCTAGGCCGGGTG'
p3249
ag3
(g7
S'\x00\x00\x00\x00 \xa0lA'
p3250
tp3251
Rp3252
aa(lp3253
S'GGAATTGATGTCCCGTCGCCATTAG'
p3254
ag3
(g7
S'\x00\x00\x00\x00\x0e\x9dmA'
p3255
tp3256
Rp3257
aa(lp3258
S'TGAATGACGTGAACGCTAGGTTGTA'
p3259
ag3
(g7
S'\x00\x00\x00\x00\x95T\x8bA'
p3260
tp3261
Rp3262
aa(lp3263
S'GGAGGGTAGAGTTGCTCTTGCTAGC'
p3264
ag3
(g7
S'\xff\xff\xff\x7f\x1dC\x85A'
p3265
tp3266
Rp3267
aa(lp3268
S'ATTGGCGTCGGGATTGGATCATTTG'
p3269
ag3
(g7
S'\x00\x00\x00\x80F\xc2\x87A'
p3270
tp3271
Rp3272
aa(lp3273
S'AGATAGCCTGTAAGTCACCACTCGC'
p3274
ag3
(g7
S'\x00\x00\x00\x00\xbd\x83yA'
p3275
tp3276
Rp3277
aa(lp3278
S'CTGCACCATAATGCATCGACTACGT'
p3279
ag3
(g7
S'\xf0tk~\xd8I\x05A'
p3280
tp3281
Rp3282
aa(lp3283
S'ATACGGCAACCGGTGATTCTCTGAT'
p3284
ag3
(g7
S'VUUUC[dA'
p3285
tp3286
Rp3287
aa(lp3288
S'CTGCGAACGGCTGTCCATTACTATC'
p3289
ag3
(g7
S'\x01\x00\x00\x00\x05\x90uA'
p3290
tp3291
Rp3292
aa(lp3293
S'GGTTAAGAGTGTACGGCAGGTCTGA'
p3294
ag3
(g7
S'\x00\x00\x00\x00n^\x80A'
p3295
tp3296
Rp3297
aa(lp3298
S'CTAACCGACTCTGTCGAACGATGTG'
p3299
ag3
(g7
S'\x00\x00\x00\x00\xcd\xbcvA'
p3300
tp3301
Rp3302
aa(lp3303
S'GTAAACCCTCAAGACGAATCACGGC'
p3304
ag3
(g7
S'\x00\x00\x00\x002\xa3{A'
p3305
tp3306
Rp3307
aa(lp3308
S'GGTAGCTGTAACCCAGCTGCACTAA'
p3309
ag3
(g7
S'\xff\xff\xff\xff{\x0eVA'
p3310
tp3311
Rp3312
aa(lp3313
S'TGTTCCAACCTTTTGTTCACCCAGC'
p3314
ag3
(g7
S'\x00\x00\x00\x00\x0c>\x7fA'
p3315
tp3316
Rp3317
aa(lp3318
S'GACATAAATAGCGAAGCTGTGGGCA'
p3319
ag3
(g7
S'\x00\x00\x00\x80\xdbS\x84A'
p3320
tp3321
Rp3322
aa(lp3323
S'GTATTCCTCACTCTCTACGGCGTGA'
p3324
ag3
(g7
S'\x00\x00\x00\x00\x18\xb9oA'
p3325
tp3326
Rp3327
aa(lp3328
S'CAGTCCGAATTCATTCGCGTTATGC'
p3329
ag3
(g7
S'\xff\xff\xff\xff\x93\x04wA'
p3330
tp3331
Rp3332
aa(lp3333
S'AAGCCGTATAAGCGCTTAGGGTCTA'
p3334
ag3
(g7
S'\xff\xff\xff\xff\x11\xc6mA'
p3335
tp3336
Rp3337
aa(lp3338
S'ATTCCGTCATAACATCCCCGTGTCA'
p3339
ag3
(g7
S'\x00\x00\x00\x00oC\x81A'
p3340
tp3341
Rp3342
aa(lp3343
S'GGCATATCAAGCAAAAAAGCTGCGA'
p3344
ag3
(g7
S'\x00\x00\x00\x00`0oA'
p3345
tp3346
Rp3347
aa(lp3348
S'GGTGACATAGCGTAGGGTATGGTGG'
p3349
ag3
(g7
S'\x00\x00\x00\x00\xe9p\x84A'
p3350
tp3351
Rp3352
aa(lp3353
S'AGTGAATCTTGGGTTAGGTGAGGCG'
p3354
ag3
(g7
S'\x00\x00\x00\x00\x8e\x11\x95A'
p3355
tp3356
Rp3357
aa(lp3358
S'TCGCCTGCTACTACTCTCAACAAGT'
p3359
ag3
(g7
S'\xff\xff\xff\xff\x82\xbc\x7fA'
p3360
tp3361
Rp3362
aa(lp3363
S'ACCCAGGCTACAGTTGAACCTTTGA'
p3364
ag3
(g7
S'\x01\x00\x00\x00\xf0\xb3jA'
p3365
tp3366
Rp3367
aa(lp3368
S'ATATCCATGGTGTCCTAGCAGGGGG'
p3369
ag3
(g7
S'\x00\x00\x00\x00\xfa\xcflA'
p3370
tp3371
Rp3372
aa(lp3373
S'GTGGCGAGATGGCTCCTTAGAGTAC'
p3374
ag3
(g7
S'\x00\x00\x00\x00R\x80yA'
p3375
tp3376
Rp3377
aa(lp3378
S'GGTATCGAACCTTCCGAGCTGTCTT'
p3379
ag3
(g7
S'\x00\x00\x00\x00}\xf3vA'
p3380
tp3381
Rp3382
aa(lp3383
S'TCGGCCAAGACCAGTACGTCTTAAA'
p3384
ag3
(g7
S'\x00\x00\x00\x00\x94.pA'
p3385
tp3386
Rp3387
aa(lp3388
S'GTAAATTGGATCTTTGCGCCGTGTG'
p3389
ag3
(g7
S'\xff\xff\xff\xff>\xc2\x82A'
p3390
tp3391
Rp3392
aa(lp3393
S'TCAGCGATGATCCAGGTGGAGTTTT'
p3394
ag3
(g7
S'\x00\x00\x00\x00\xab?pA'
p3395
tp3396
Rp3397
aa(lp3398
S'CGAAATGAGTACGCTTATACCGCCC'
p3399
ag3
(g7
S'\x00\x00\x00\x006\x8bqA'
p3400
tp3401
Rp3402
aa(lp3403
S'TGACGCTGTGAGTAGTGATCTCCTG'
p3404
ag3
(g7
S'\x00\x00\x00\x00JXrA'
p3405
tp3406
Rp3407
aa(lp3408
S'AGAGAGTACTCTTTAAGCGGGGGGT'
p3409
ag3
(g7
S'\x00\x00\x00\x00\xee\xe9\x88A'
p3410
tp3411
Rp3412
aa(lp3413
S'ACGGAAATGTGCGAGTGGGAAATTT'
p3414
ag3
(g7
S'\x00\x00\x00\x00\x84\xf5\x82A'
p3415
tp3416
Rp3417
aa(lp3418
S'GATCACGCTCTGCCAACCTAGTAGA'
p3419
ag3
(g7
S'\x00\x00\x00\x00\xf7 zA'
p3420
tp3421
Rp3422
aa(lp3423
S'CTCCACTGAGCCAGTGATTCTGTCA'
p3424
ag3
(g7
S'\xff\xff\xff\xff\t3sA'
p3425
tp3426
Rp3427
aa(lp3428
S'GCTGTACTAATGTTTTCCCGTGGCC'
p3429
ag3
(g7
S'\x00\x00\x00\x00[\xe1\x83A'
p3430
tp3431
Rp3432
aa(lp3433
S'CAGGCTGGTGAGTGGTCATACAGTA'
p3434
ag3
(g7
S'\x01\x00\x00\x00\x8e\xa6aA'
p3435
tp3436
Rp3437
aa(lp3438
S'GCATAAACACGCCTAAGGGCGTAAA'
p3439
ag3
(g7
S'\x00\x00\x00\x00m\xe4rA'
p3440
tp3441
Rp3442
aa(lp3443
S'CCAGGAGGGAGGGTAAACAAGTCCT'
p3444
ag3
(g7
S'\x00\x00\x00\x00\x10g_A'
p3445
tp3446
Rp3447
aa(lp3448
S'ACTTGAACGCCATAATTGAGAGCGA'
p3449
ag3
(g7
S'\x00\x00\x00\x00\x00\xedgA'
p3450
tp3451
Rp3452
aa(lp3453
S'CCGGCGGTAATAAGATGCTGATGTC'
p3454
ag3
(g7
S'\x00\x00\x00\x00\xb8uhA'
p3455
tp3456
Rp3457
aa(lp3458
S'AATAAACCGGTAGCATGCTAACGCC'
p3459
ag3
(g7
S'\x00\x00\x00\x00\xca\rtA'
p3460
tp3461
Rp3462
aa(lp3463
S'CCCTCGAAATGTAGTCACCCTCACC'
p3464
ag3
(g7
S'\x00\x00\x00\x00\xb7\xba\x90A'
p3465
tp3466
Rp3467
aa(lp3468
S'TTACCGGAAGGCTAACATCAGCGAA'
p3469
ag3
(g7
S'\x00\x00\x00\x00F/rA'
p3470
tp3471
Rp3472
aa(lp3473
S'GAACCTCGGTGCATCTTCGACAATA'
p3474
ag3
(g7
S'\x00\x00\x00\x00\\\x9c{A'
p3475
tp3476
Rp3477
aa(lp3478
S'TGGCCCGTGTAGCTCTTAAGTCTTA'
p3479
ag3
(g7
S'\x00\x00\x00\x00\x14\xe4\x81A'
p3480
tp3481
Rp3482
aa(lp3483
S'CCAGCAAAAGCACCGGAATCTGAAA'
p3484
ag3
(g7
S'\x00\x00\x00\x00B\x06rA'
p3485
tp3486
Rp3487
aa(lp3488
S'AAAGGTCGGCAGTTTGTGAAATGGG'
p3489
ag3
(g7
S'\x01\x00\x00\x00\xb3g\x87A'
p3490
tp3491
Rp3492
aa(lp3493
S'ACCGGTAAGACAGTGCTGGTTAGAC'
p3494
ag3
(g7
S'\x00\x00\x00\x00V\xa9iA'
p3495
tp3496
Rp3497
aa(lp3498
S'TGCACCTGCGTTATTCTGACTCATG'
p3499
ag3
(g7
S'\x00\x00\x00\x00h\xd6\x81A'
p3500
tp3501
Rp3502
aa(lp3503
S'AAAGCCATCTCCTGGTTCGCAAAAC'
p3504
ag3
(g7
S'\x00\x00\x00\x00\x93\x1fvA'
p3505
tp3506
Rp3507
aa(lp3508
S'CCAACTACCCTTCTACTTGCGGGTA'
p3509
ag3
(g7
S'\xff\xff\xff\xff5\xf6dA'
p3510
tp3511
Rp3512
aa(lp3513
S'CTTGACCTCAAGTGGTCCCAAGACC'
p3514
ag3
(g7
S'<\xdd\x9a\x1f\x16\xd2\xfc@'
p3515
tp3516
Rp3517
aa(lp3518
S'GGAAGTATCAGGCTACTGTGACGCT'
p3519
ag3
(g7
S'\x00\x00\x00\x00\xfd\xd2qA'
p3520
tp3521
Rp3522
aa(lp3523
S'GCCATTCGGCAAATGTGCAATAAGG'
p3524
ag3
(g7
S'\x00\x00\x00\x00p\x93uA'
p3525
tp3526
Rp3527
aa(lp3528
S'CCTAGAAATAGCTCCCGGGCATCTG'
p3529
ag3
(g7
S'\x00\x00\x00\x00\x82+qA'
p3530
tp3531
Rp3532
aa(lp3533
S'GGCGTTGGTTTCAAGATCTTACCGT'
p3534
ag3
(g7
S'\x00\x00\x00\x00\xf8\xc4pA'
p3535
tp3536
Rp3537
aa(lp3538
S'CCATCGAGTGAGACCCTAACGTGTT'
p3539
ag3
(g7
S'\x00\x00\x00\x00\xce\xa1gA'
p3540
tp3541
Rp3542
aa(lp3543
S'ATTCAACGGAAAACAGGGGACCTGA'
p3544
ag3
(g7
S'9\x8e\xe38\xd2\rSA'
p3545
tp3546
Rp3547
aa(lp3548
S'TCTGCTCCTGCATCTGCACTATCTA'
p3549
ag3
(g7
S'\x01\x00\x00\x80Q.\x8eA'
p3550
tp3551
Rp3552
aa(lp3553
S'GGCTTACGGGCTTTTGACAAAATGC'
p3554
ag3
(g7
S'\x00\x00\x00\x00T\xdfgA'
p3555
tp3556
Rp3557
aa(lp3558
S'TTGGCCTGTGTCCCTGTGAAATCTC'
p3559
ag3
(g7
S'\x00\x00\x00\x00\xa1dxA'
p3560
tp3561
Rp3562
aa(lp3563
S'TTGTGTGAGCCGTTAACACAACTGG'
p3564
ag3
(g7
S'\xff\xff\xff\xffoi\\A'
p3565
tp3566
Rp3567
aa(lp3568
S'GTGTGTGCCCCCCCTATAAAACGAT'
p3569
ag3
(g7
S'\x00\x00\x00\x00GU\x8dA'
p3570
tp3571
Rp3572
aa(lp3573
S'AATGTGAAGAACCCGAGTCAGGGTG'
p3574
ag3
(g7
S'\x01\x00\x00\x80\xc1\x93\x81A'
p3575
tp3576
Rp3577
aa(lp3578
S'ACTGTGACCCTTGCAGGTAATTGGA'
p3579
ag3
(g7
S'\x00\x00\x00\x00\xf2\xe8\x7fA'
p3580
tp3581
Rp3582
aa(lp3583
S'CGCCCTTATCCTTGGTCTCAATCCC'
p3584
ag3
(g7
S'\x00\x00\x00\x00[v\x90A'
p3585
tp3586
Rp3587
aa(lp3588
S'TTCTCGTCAAAACTCTGCACAAGCC'
p3589
ag3
(g7
S'\x00\x00\x00\x00K=sA'
p3590
tp3591
Rp3592
aa(lp3593
S'TACGATTTCGCACCTCAGCCTAAAG'
p3594
ag3
(g7
S'\xff\xff\xff\xff\x060~A'
p3595
tp3596
Rp3597
aa(lp3598
S'TATCCGAGAGTGCATCATTCCCAGT'
p3599
ag3
(g7
S'\x00\x00\x00\x00\x96\xa4oA'
p3600
tp3601
Rp3602
aa(lp3603
S'GAAAAGGGCTACACGTCACGACATA'
p3604
ag3
(g7
S'\xff\xff\xff\xff:\x04\x86A'
p3605
tp3606
Rp3607
aa(lp3608
S'GTCGACTACTTAACCCCACCACGTT'
p3609
ag3
(g7
S'\x01\x00\x00\x00?\xc2rA'
p3610
tp3611
Rp3612
aa(lp3613
S'CGGTATAGGCTCATATAGCCTGGCG'
p3614
ag3
(g7
S'\x00\x00\x00\x00b\x8fmA'
p3615
tp3616
Rp3617
aa(lp3618
S'GCTACCCAGATCGGCGTTTTCAAAT'
p3619
ag3
(g7
S'\x00\x00\x00\x00\xa4\x13{A'
p3620
tp3621
Rp3622
aa(lp3623
S'CAACGACGCCATCGAAACATTGTAG'
p3624
ag3
(g7
S'\x00\x00\x00\x00\xd0\x95bA'
p3625
tp3626
Rp3627
aa(lp3628
S'AATGCGAGGTCTCCATCATCATGGG'
p3629
ag3
(g7
S'\x00\x00\x00\x00#\xe4{A'
p3630
tp3631
Rp3632
aa(lp3633
S'CGTGACCTCTCTCGGTGCTATATGG'
p3634
ag3
(g7
S"\x01\x00\x00\x00'x\x7fA"
p3635
tp3636
Rp3637
aa(lp3638
S'ATTACTCCGACAAAACGTTACCGCC'
p3639
ag3
(g7
S'\xff\xff\xff\xff\x9c;\x88A'
p3640
tp3641
Rp3642
aa(lp3643
S'ATAAGAGCCCAAGTAGCCTCCTGGA'
p3644
ag3
(g7
S'\xab\xaa\xaa\xaa\xca\x82cA'
p3645
tp3646
Rp3647
aa(lp3648
S'GCGATTATCCGTTATGGGGCGATTA'
p3649
ag3
(g7
S'\x00\x00\x00\x00\xe1\x1etA'
p3650
tp3651
Rp3652
aa(lp3653
S'GCCTACCAAAGCAGTGGGTTGATTG'
p3654
ag3
(g7
S'\x00\x00\x00\x00c3tA'
p3655
tp3656
Rp3657
aa(lp3658
S'CATCATGTTAGCCACCGTTCCCAAC'
p3659
ag3
(g7
S'\x00\x00\x00\x80\x15\x86\x81A'
p3660
tp3661
Rp3662
aa(lp3663
S'GGTCGAGGGAGAAACCAGTACATGG'
p3664
ag3
(g7
S'\x00\x00\x00\x00\x8e\xa6\x81A'
p3665
tp3666
Rp3667
aa(lp3668
S'CGCCACCGATGTTAGCCAAAAAATG'
p3669
ag3
(g7
S'\x00\x00\x00\x00\x13\xff\x80A'
p3670
tp3671
Rp3672
aa(lp3673
S'GATATATCCCGAGAACCGTCCGTCC'
p3674
ag3
(g7
S'\x00\x00\x00\x00\x13\xff\x80A'
p3675
tp3676
Rp3677
aa(lp3678
S'CGTCTTCCAGCATAAATGCGACCTA'
p3679
ag3
(g7
S'\x00\x00\x00\x00M\x07uA'
p3680
tp3681
Rp3682
aa(lp3683
S'CAGTGTCCCCGATGTATCCAAGTCC'
p3684
ag3
(g7
S'\x00\x00\x00\x00G\x14\x83A'
p3685
tp3686
Rp3687
aa(lp3688
S'CTTGCCCGTAGTATCTGAATGCCCT'
p3689
ag3
(g7
S'\x00\x00\x00\x00\xf5\xc1{A'
p3690
tp3691
Rp3692
aa(lp3693
S'GAGATTGGACTCGACCAAGGAACCA'
p3694
ag3
(g7
S'\xff\xff\xff\xff\xd4\x0ewA'
p3695
tp3696
Rp3697
aa(lp3698
S'TGAGGTTCACGCTGTTAAGTGCATA'
p3699
ag3
(g7
S'\x00\x00\x00\x00H\x8epA'
p3700
tp3701
Rp3702
aa(lp3703
S'CGCCTCTAGGTGGAATTGTTGACCT'
p3704
ag3
(g7
S'\x00\x00\x00\x00IsqA'
p3705
tp3706
Rp3707
aa(lp3708
S'CCCAATGGCGACCCACCTACTTTAA'
p3709
ag3
(g7
S'\x00\x00\x00\x00\xace\x8bA'
p3710
tp3711
Rp3712
aa(lp3713
S'GGCCTACATACATACTCAGCGGTGA'
p3714
ag3
(g7
S'\x00\x00\x00\x00J.yA'
p3715
tp3716
Rp3717
aa(lp3718
S'GTGACAACCATTAACCGGACGTTCA'
p3719
ag3
(g7
S'\x01\x00\x00\x00\xbctoA'
p3720
tp3721
Rp3722
aa(lp3723
S'GCAAGCGATCCCTAGATACTGACCC'
p3724
ag3
(g7
S'\x00\x00\x00\x00\x86T\x81A'
p3725
tp3726
Rp3727
aa(lp3728
S'CTGAAGCTAGCTGCGTTTTCGGTAT'
p3729
ag3
(g7
S'\xff\xff\xff\xff\xbf\x9doA'
p3730
tp3731
Rp3732
aa(lp3733
S'TTGCACTCGTACAGCTTATGAAGCG'
p3734
ag3
(g7
S'\xff\xff\xff\xff\xc1\xfcmA'
p3735
tp3736
Rp3737
aa(lp3738
S'ATAGGTGGAGCTGGAGAGCAATTCG'
p3739
ag3
(g7
S'\x00\x00\x00\x80\xd3\x01\x84A'
p3740
tp3741
Rp3742
aa(lp3743
S'GGGAGCACCATAAACGTACCTTTGC'
p3744
ag3
(g7
S'\x00\x00\x00\x00\xc4\xc6_A'
p3745
tp3746
Rp3747
aa(lp3748
S'GAGGAATTTTACGCCGCTTTTCAGC'
p3749
ag3
(g7
S'\x00\x00\x00\x00\x15\n}A'
p3750
tp3751
Rp3752
aa(lp3753
S'CTTAAGCTTGAGCACCAACCAGTCG'
p3754
ag3
(g7
S'\x00\x00\x00\x00-\xbfsA'
p3755
tp3756
Rp3757
aa(lp3758
S'TGACCTAATGCTATGACTCGCCCTC'
p3759
ag3
(g7
S'\x00\x00\x00\x80\xfe\xb5\x8bA'
p3760
tp3761
Rp3762
aa(lp3763
S'ATCTCTGGACAGCCGTCGTTCTAAG'
p3764
ag3
(g7
S'\x00\x00\x00\x00T\t\x81A'
p3765
tp3766
Rp3767
aa(lp3768
S'AGGATTTAAGGTCGTCCTGGCTGTC'
p3769
ag3
(g7
S'\x00\x00\x00\x00\xd5yzA'
p3770
tp3771
Rp3772
aa(lp3773
S'AAAGCGGTACGACTAGAGACGTCTC'
p3774
ag3
(g7
S'\x00\x00\x00\x00\xd6\x1daA'
p3775
tp3776
Rp3777
aa(lp3778
S'GGAGAAAACACCTTACAGTTGCCGG'
p3779
ag3
(g7
S'\x00\x00\x00\x00\x969|A'
p3780
tp3781
Rp3782
aa(lp3783
S'CGACCCTTCAGGTTCCCCTTATGTG'
p3784
ag3
(g7
S'\x01\x00\x00\x00E\x8b{A'
p3785
tp3786
Rp3787
aa(lp3788
S'AGGTCGGGACCGCCATTTATAGTTA'
p3789
ag3
(g7
S'\xff\xff\xff\x7f\xb8\\\x80A'
p3790
tp3791
Rp3792
aa(lp3793
S'GGGAGACTGCAGTCGTTATGCTACT'
p3794
ag3
(g7
S'\x00\x00\x00\x00U\xc4xA'
p3795
tp3796
Rp3797
aa(lp3798
S'ACATCGGTGAACCAGGCAAGAAATG'
p3799
ag3
(g7
S'\x00\x00\x00\x00\xf6;yA'
p3800
tp3801
Rp3802
aa(lp3803
S'TTCGAGCGAATGCATAAAACAGGGG'
p3804
ag3
(g7
S'\xff\xff\xff\xffF\xea\x89A'
p3805
tp3806
Rp3807
aa(lp3808
S'AATTCACCCTGGCAATTTCGTGGTG'
p3809
ag3
(g7
S'\x00\x00\x00\x00P\xe0PA'
p3810
tp3811
Rp3812
aa(lp3813
S'GTGGGTCATGCACGACATCTTGTAC'
p3814
ag3
(g7
S'\x00\x00\x00\x00}\x88sA'
p3815
tp3816
Rp3817
aa(lp3818
S'AGTCTTCTCTGGTCGGATCCCAGTT'
p3819
ag3
(g7
S'\xff\xff\xff\xffc\xeekA'
p3820
tp3821
Rp3822
aa(lp3823
S'GAGGGAGTTCGTATCTAGTGGCAGC'
p3824
ag3
(g7
S'\x00\x00\x00\x00\tN\x92A'
p3825
tp3826
Rp3827
aa(lp3828
S'TCCGACTGCGTAGATAGGAGAATCG'
p3829
ag3
(g7
S'\x00\x00\x00\x00x\xe5eA'
p3830
tp3831
Rp3832
aa(lp3833
S'ATGCTTCTCCCGATCTACGGAGTTG'
p3834
ag3
(g7
S'\x00\x00\x00\x00\x94ojA'
p3835
tp3836
Rp3837
aa(lp3838
S'AACAATAAGCCGCAGGATCCCCAAA'
p3839
ag3
(g7
S'\xff\xff\xff\xff\x06\xc5\x8aA'
p3840
tp3841
Rp3842
aa(lp3843
S'GAGGCCTCAATAGCAATGCGATCTG'
p3844
ag3
(g7
S'\x00\x00\x00\x00\xab\x15wA'
p3845
tp3846
Rp3847
aa(lp3848
S'CTTCAGTGTTGCCTGCTGTTGTGAA'
p3849
ag3
(g7
S'\x00\x00\x00\x00\xa0\xa9pA'
p3850
tp3851
Rp3852
aa(lp3853
S'GTCATCTTCGTAAACCGACGTTCCC'
p3854
ag3
(g7
S'\x01\x00\x00\x80\xa5t\x80A'
p3855
tp3856
Rp3857
aa(lp3858
S'TACGGGTACCTTCGAGACTCTTGTC'
p3859
ag3
(g7
S'\x00\x00\x00\x00d\xee[A'
p3860
tp3861
Rp3862
aa(lp3863
S'ATTGGGGTCAACCGTTAACAGAGCT'
p3864
ag3
(g7
S'\x00\x00\x00\x00V\xa9yA'
p3865
tp3866
Rp3867
aa(lp3868
S'AGCGTCCGTATTTCTCTCAATTGCC'
p3869
ag3
(g7
S'\x00\x00\x00\x00\xb5[rA'
p3870
tp3871
Rp3872
aa(lp3873
S'GCCCATTGTGACGGCAGGTTTATTT'
p3874
ag3
(g7
S'\x00\x00\x00\x00\xb6\xab\x86A'
p3875
tp3876
Rp3877
aa(lp3878
S'ACCCAATGGCTAGGTCAGGATTGTG'
p3879
ag3
(g7
S'\xaa\xaa\xaa\xaaR\x8aEA'
p3880
tp3881
Rp3882
aa(lp3883
S'GAATTCGTCACCGAGCTGTTGACAT'
p3884
ag3
(g7
S'\x00\x00\x00\x00\x04@aA'
p3885
tp3886
Rp3887
aa(lp3888
S'TGTTCAGGTCAGACTAGAGCGACTG'
p3889
ag3
(g7
S'\x00\x00\x00\x00\xea\xc0hA'
p3890
tp3891
Rp3892
aa(lp3893
S'CATGAAACCCAGCGGTGTTCGTAAT'
p3894
ag3
(g7
S'\x00\x00\x00\x00Xs[A'
p3895
tp3896
Rp3897
aa(lp3898
S'CGGGTTCCTAAGGAGCTAATGGACG'
p3899
ag3
(g7
S'\x00\x00\x00\x80\xb1\xef\x80A'
p3900
tp3901
Rp3902
aa(lp3903
S'CTACCTAGACGTCCAGACCAACGTC'
p3904
ag3
(g7
S'\x00\x00\x00\x00v\\nA'
p3905
tp3906
Rp3907
aa(lp3908
S'TAGATGACCTAGGCAACCCCTGGAA'
p3909
ag3
(g7
S'\x01\x00\x00\x00\x94ojA'
p3910
tp3911
Rp3912
aa(lp3913
S'AGTCAGACTAGGGATTGGGTGGTCC'
p3914
ag3
(g7
S'\x01\x00\x00\x00@}jA'
p3915
tp3916
Rp3917
aa(lp3918
S'CATGTCATATACGCACCTCACGTGG'
p3919
ag3
(g7
S'\xff\xff\xff\xff\xab\xfagA'
p3920
tp3921
Rp3922
aa(lp3923
S'TCTATCCCCAGGGGGGAATTCACTG'
p3924
ag3
(g7
S'\xff\xff\xff\xff\xc1P\x80A'
p3925
tp3926
Rp3927
aa(lp3928
S'CACTTTACGCCCCGAGTTCGTTATA'
p3929
ag3
(g7
S'\x00\x00\x00\x00\xb9\xefuA'
p3930
tp3931
Rp3932
aa(lp3933
S'TCACACAAAGGAACCTCTCGCAAAC'
p3934
ag3
(g7
S'\x00\x00\x00@\xed\x18\x99A'
p3935
tp3936
Rp3937
aa(lp3938
S'CGTGAACCCCAAAACTTCATGGCAA'
p3939
ag3
(g7
S'\xff\xff\xff\xff\xad\xeebA'
p3940
tp3941
Rp3942
aa(lp3943
S'CGAAGTGAACAAGCACTCATGGTCA'
p3944
ag3
(g7
S'\x00\x00\x00\x002\xa3kA'
p3945
tp3946
Rp3947
aa(lp3948
S'TACGCCTGGTTCTTGTGTAATGGTG'
p3949
ag3
(g7
S'\x00\x00\x00\x00\xe8\xf6vA'
p3950
tp3951
Rp3952
aa(lp3953
S'AACTCACTACTCGCCAGGCTTCATA'
p3954
ag3
(g7
S'\x00\x00\x00\x80\xd7\xbf\x90A'
p3955
tp3956
Rp3957
aa(lp3958
S'GGGGGTCAGACCCCATAAGTAGTCC'
p3959
ag3
(g7
S'\x00\x00\x00\x00\xcf\x86xA'
p3960
tp3961
Rp3962
aa(lp3963
S'TGAATAGCCCCGGCTGATTAACCTA'
p3964
ag3
(g7
S'\xff\xff\xff\xff\t\x9evA'
p3965
tp3966
Rp3967
aa(lp3968
S'CTTGCATCTCCAAAGCTGTGATGCT'
p3969
ag3
(g7
S'|\xa0\x8f?\xc3\xb4\xba@'
p3970
tp3971
Rp3972
aa(lp3973
S'TTCCTGGCGGTCGTCGTATTAGTAG'
p3974
ag3
(g7
S'\x00\x00\x00\x00<\xbf}A'
p3975
tp3976
Rp3977
aa(lp3978
S'GTCCTTGGGAAGTGGCTAGTACAGC'
p3979
ag3
(g7
S'\x00\x00\x00\x00X\x9dTA'
p3980
tp3981
Rp3982
aa(lp3983
S'TGCTTTTCCCTTATTCCGTCGCTTA'
p3984
ag3
(g7
S'\x00\x00\x00\x00\xa5"\x85A'
p3985
tp3986
Rp3987
aa(lp3988
S'GAGGCTTAGATTGGCTTTGCCACAG'
p3989
ag3
(g7
S'UUUUU\xc9FA'
p3990
tp3991
Rp3992
aa(lp3993
S'GCAGCTTCAGTTACCGATGCATCAA'
p3994
ag3
(g7
S'\x00\x00\x00\x00\x08\x15_A'
p3995
tp3996
Rp3997
aa(lp3998
S'AGGCGTGATGGATTGTAGCAAAACA'
p3999
ag3
(g7
S'\x00\x00\x00\x00\xa5\xb7\x81A'
p4000
tp4001
Rp4002
aa(lp4003
S'TAGCGAACATCGAGGGTAATTTCGG'
p4004
ag3
(g7
S'\xaa\xaa\xaa\xaaf\xecRA'
p4005
tp4006
Rp4007
aa(lp4008
S'AGAATTCCCTGGGATGACCAACAGC'
p4009
ag3
(g7
S'\xff\xff\xff\xff9\x1fuA'
p4010
tp4011
Rp4012
aa(lp4013
S'AGGGATCGACAAAATACTCATGCGC'
p4014
ag3
(g7
S'\x00\x00\x00\x00X\xdenA'
p4015
tp4016
Rp4017
aa(lp4018
S'AGATGGTTTTTCGTGCCTCACACTG'
p4019
ag3
(g7
S'\xff\xff\xff\xffE/\x82A'
p4020
tp4021
Rp4022
aa(lp4023
S'CTTAACAGTAAGTTGGACACCGGCG'
p4024
ag3
(g7
S'\x00\x00\x00\x00r\xf2sA'
p4025
tp4026
Rp4027
aa(lp4028
S'GGATAGTCCGTCAGGGCCTATCCAT'
p4029
ag3
(g7
S'\xe8L-\x17\xee\xba\xb6@'
p4030
tp4031
Rp4032
aa(lp4033
S'GACTCTAGTCCTCTGGGGATAGCCG'
p4034
ag3
(g7
S'\x00\x00\x00\x00<\xe9fA'
p4035
tp4036
Rp4037
aa(lp4038
S'GAAGGGGAAGAAGAGTACACGGAGC'
p4039
ag3
(g7
S'\x00\x00\x00`\xcc\n\xa4A'
p4040
tp4041
Rp4042
aa(lp4043
S'AGTCACAAGAGAAGACGCGACATTG'
p4044
ag3
(g7
S'\x01\x00\x00\x00\x98\x03NA'
p4045
tp4046
Rp4047
aa(lp4048
S'GGGTTTCACACGTTTTACCGCTAGA'
p4049
ag3
(g7
S'\x01\x00\x00\x00\xb3\xfcsA'
p4050
tp4051
Rp4052
aa(lp4053
S'TCCCGTGGAGACGTAATGACTATCG'
p4054
ag3
(g7
S'\x01\x00\x00\x00\xdc\xe6iA'
p4055
tp4056
Rp4057
aa(lp4058
S'CAAGATCAGAATACTCTCACGCGGC'
p4059
ag3
(g7
S'\x00\x00\x00\x007p\x82A'
p4060
tp4061
Rp4062
aa(lp4063
S'AAAAATAAGCTTTTCCGGCGAGGGG'
p4064
ag3
(g7
S'\x00\x00\x00\x00P!kA'
p4065
tp4066
Rp4067
aa(lp4068
S'CACATTATGCAATGGGCGTCCTACC'
p4069
ag3
(g7
S'\x00\x00\x00\x008UsA'
p4070
tp4071
Rp4072
aa(lp4073
S'CAGGGGACAGTCTGAAACGTGTAGT'
p4074
ag3
(g7
S'\xff\xff\xff\xff18xA'
p4075
tp4076
Rp4077
aa(lp4078
S'TTCCGGTCTATTATCACACCGGCTG'
p4079
ag3
(g7
S'1\x94\xea\x04B\x14\xb2@'
p4080
tp4081
Rp4082
aa(lp4083
S'AAGTAAGAAGTTGCGTGCCAGTTGG'
p4084
ag3
(g7
S'\x00\x00\x00\x00\x01=\x8cA'
p4085
tp4086
Rp4087
aa(lp4088
S'TTGGTCAGCTTACCTTGTCGACGAA'
p4089
ag3
(g7
S'\x00\x00\x00\x00\xfcXtA'
p4090
tp4091
Rp4092
aa(lp4093
S'TTTTCGGCTGAGAGTCGCTTCTTTG'
p4094
ag3
(g7
S'\x00\x00\x00\x80\xfc\x15\x83A'
p4095
tp4096
Rp4097
aa(lp4098
S'GAAAGTTAAAACCGCGAAGAGCGAC'
p4099
ag3
(g7
S'\x00\x00\x00\x00~\xd8wA'
p4100
tp4101
Rp4102
aa(lp4103
S'TCTCTGCTGGATAGCACGCTATCTC'
p4104
ag3
(g7
S'\xff\xff\xff\xff\xe4\x1d{A'
p4105
tp4106
Rp4107
aa(lp4108
S'CGAAAGCTCATCCGGCATAAGCTTT'
p4109
ag3
(g7
S'\x8e\xe38\x8e\xe3\xdc\xec@'
p4110
tp4111
Rp4112
aa(lp4113
S'TAAAGCAGGTGTCCGTAGTAGCCTA'
p4114
ag3
(g7
S'\x00\x00\x00\x00\xb0MqA'
p4115
tp4116
Rp4117
aa(lp4118
S'ACAGGTTTAGCAACACTTCGGCATA'
p4119
ag3
(g7
S'\x00\x00\x00\x00De\x80A'
p4120
tp4121
Rp4122
aa(lp4123
S'CCTTGGAGATTCCGAGGCTTCTCAG'
p4124
ag3
(g7
S'\x00\x00\x00\x00\xdc{VA'
p4125
tp4126
Rp4127
aa(lp4128
S'TGTACAAATGGGCAAGCGATTCACT'
p4129
ag3
(g7
S'\x00\x00\x00\x00f\xe2vA'
p4130
tp4131
Rp4132
aa(lp4133
S'TCCTCGTACTGTTGACAGCAACTCT'
p4134
ag3
(g7
S'\x00\x00\x00\x00}\x1d\x80A'
p4135
tp4136
Rp4137
aa(lp4138
S'AGGCGTGCATCGGTTACAAAGATTT'
p4139
ag3
(g7
S'\x00\x00\x00\x00\xb2\xedyA'
p4140
tp4141
Rp4142
aa(lp4143
S'GAATCCCACGCGGAGAACAAAGTAG'
p4144
ag3
(g7
S'\x00\x00\x00\x00o\xae\x84A'
p4145
tp4146
Rp4147
aa(lp4148
S'ACTTTATTCCGGTTCCGGGGAAGAG'
p4149
ag3
(g7
S'\x00\x00\x00\x00L\x8dWA'
p4150
tp4151
Rp4152
aa(lp4153
S'ATTAGTCGAGTACTCCCCCCGAGTC'
p4154
ag3
(g7
S'\xff\xff\xff\xffJ~}A'
p4155
tp4156
Rp4157
aa(lp4158
S'ATGTTTCTGTCTTTCCGATCGCGAG'
p4159
ag3
(g7
S'\x01\x00\x00\x00\x99}\x8bA'
p4160
tp4161
Rp4162
aa(lp4163
S'CACCCTTCCAGATTGCGAAATGGAC'
p4164
ag3
(g7
S'\x00\x00\x00\x00`\xefdA'
p4165
tp4166
Rp4167
aa(lp4168
S'ACAATTGAGTGAGCAGTGTCACTGC'
p4169
ag3
(g7
S'\x00\x00\x00\x00\xe4\xcdfA'
p4170
tp4171
Rp4172
aa(lp4173
S'TTAATGGCTAAACCCATGCACGTCG'
p4174
ag3
(g7
S'\x00\x00\x00\x00?-vA'
p4175
tp4176
Rp4177
aa(lp4178
S'TTGACAACGAATACAGCGTTGTGGT'
p4179
ag3
(g7
S'\x8b\x94\x81\xa7\xdb\xc0\x0fA'
p4180
tp4181
Rp4182
aa(lp4183
S'TGCCGAAAGGTTTCTCTGCACTTAC'
p4184
ag3
(g7
S'\x01\x00\x00\x00\x1c\xa1eA'
p4185
tp4186
Rp4187
aa(lp4188
S'TGATGGCTCATGATTCGAGGATGGA'
p4189
ag3
(g7
S'\x00\x00\x00\x00\xce\xa1\x87A'
p4190
tp4191
Rp4192
aa(lp4193
S'GGGGGTCACTAACTTCGTGAGGATG'
p4194
ag3
(g7
S'\xff\xff\xff\xff\xfd\xf8\x8cA'
p4195
tp4196
Rp4197
aa(lp4198
S'TCGTGTGTCGCTTGCTGACTATATG'
p4199
ag3
(g7
S'\x00\x00\x00\x00P\xb6wA'
p4200
tp4201
Rp4202
aa(lp4203
S'TCTTGCGGCATACCTAACAAACACC'
p4204
ag3
(g7
S'\x00\x00\x00\x80\x10\xe3\x83A'
p4205
tp4206
Rp4207
aa(lp4208
S'CTCAAGGGGTAAGAGCTCCACCTCT'
p4209
ag3
(g7
S'\x00\x00\x00\x00\x90\xb1]A'
p4210
tp4211
Rp4212
aa(lp4213
S'CATCCATAGGCCCTACTATGGGGCT'
p4214
ag3
(g7
S'\xab\xaa\xaa\xaa\x06\x7fRA'
p4215
tp4216
Rp4217
aa(lp4218
S'GCGTCTGGGACAAACCATTCATCAG'
p4219
ag3
(g7
S'\xff\xff\xff\xffL\xdd{A'
p4220
tp4221
Rp4222
aa(lp4223
S'ACAGTTGATCTGTCCACACTACCCG'
p4224
ag3
(g7
S'\x00\x00\x00\x80Z\xfa\x8bA'
p4225
tp4226
Rp4227
aa(lp4228
S'AACTAACAAGTCCTGGGCATTCCGA'
p4229
ag3
(g7
S'\x00\x00\x00\x00r\xc8jA'
p4230
tp4231
Rp4232
aa(lp4233
S'TGATGTCGACGTAAATTACCGAGCC'
p4234
ag3
(g7
S'\x00\x00\x00\x00\xe1\x1etA'
p4235
tp4236
Rp4237
aa(lp4238
S'TGGCATTTGTAGGTGGTGTACCTCC'
p4239
ag3
(g7
S'\x00\x00\x00\x00X\x08xA'
p4240
tp4241
Rp4242
aa(lp4243
S'CACGGCAGTACTTATTCGCCACTAC'
p4244
ag3
(g7
S'\x00\x00\x00\x00\xb4vaA'
p4245
tp4246
Rp4247
aa(lp4248
S'TCCCTAGGCCACTATGCAACTTACG'
p4249
ag3
(g7
S'\x00\x00\x00\x00/\x1e\x82A'
p4250
tp4251
Rp4252
aa(lp4253
S'TTCCGAACTCTTTAGGTTCGAGGCC'
p4254
ag3
(g7
S'\x00\x00\x00\x00\x16C`A'
p4255
tp4256
Rp4257
aa(lp4258
S'GCAGCCATTAGTCTGCGTAACAGAG'
p4259
ag3
(g7
S'\x00\x00\x00\x00\x98-gA'
p4260
tp4261
Rp4262
aa(lp4263
S'ATTCGATTCGACCAGTGCACAGTTC'
p4264
ag3
(g7
S'\x00\x00\x00\x00z\x85~A'
p4265
tp4266
Rp4267
aa(lp4268
S'CACCGTTCAGTTATTGGTCGCCAAT'
p4269
ag3
(g7
S'\xff\xff\xff\xff\x1b\xa1eA'
p4270
tp4271
Rp4272
aa(lp4273
S'GTTACAGGTCCGCGCTGGTAAAAAA'
p4274
ag3
(g7
S'\x00\x00\x00\x00Of\x83A'
p4275
tp4276
Rp4277
aa(lp4278
S'TGCCCGCTCCTAATCACAAATTGTC'
p4279
ag3
(g7
S'\x00\x00\x00\x00C\xc1\x89A'
p4280
tp4281
Rp4282
aa(lp4283
S'GTAAGCAAAACCAGCTGCCAGTCAA'
p4284
ag3
(g7
S'\x00\x00\x00\x00\xf9\x14uA'
p4285
tp4286
Rp4287
aa(lp4288
S'ACGTCTAGGTGACCTCAAAACGAGT'
p4289
ag3
(g7
S'VUUUu\xe7>A'
p4290
tp4291
Rp4292
aa(lp4293
S'CCCGCTGTGCGTCTGATCAATTAAT'
p4294
ag3
(g7
S'\x00\x00\x00\x80\x0e\x84\x85A'
p4295
tp4296
Rp4297
aa(lp4298
S'CAATCCCCAAATGTCTGAGCGTTGA'
p4299
ag3
(g7
S'\x00\x00\x00\x00@<`A'
p4300
tp4301
Rp4302
aa(lp4303
S'TCTGTCAGCCCCTACCTATCACAGT'
p4304
ag3
(g7
S'\xd0^B{II\x14A'
p4305
tp4306
Rp4307
aa(lp4308
S'CCTAGATCGAAGGCCAGATGTGACC'
p4309
ag3
(g7
S'\xff\xff\xff\xff\x08\xb9uA'
p4310
tp4311
Rp4312
aa(lp4313
S'CAAAAGGGTCGGCTGAATCATGTGA'
p4314
ag3
(g7
S'\x00\x00\x00\x00\xab\xaa\x83A'
p4315
tp4316
Rp4317
aa(lp4318
S'TCTTTTAAGCTGGTTCGTCGTCGTT'
p4319
ag3
(g7
S'\x00\x00\x00\x00\xd7\x02rA'
p4320
tp4321
Rp4322
aa(lp4323
S'GATCATCACCCCCAGCTACCTCCTT'
p4324
ag3
(g7
S'\x00\x00\x00\x00\xf2\x12\x99A'
p4325
tp4326
Rp4327
aa(lp4328
S'ACTCTAACAGCCATTGAGCCGTTTG'
p4329
ag3
(g7
S'\x00\x00\x00\x00T\xdfWA'
p4330
tp4331
Rp4332
aa(lp4333
S'CTAGGCAATTCGTGATCGTAGCGTT'
p4334
ag3
(g7
S'\x00\x00\x00\x00G\x14sA'
p4335
tp4336
Rp4337
aa(lp4338
S'GTGCCTAAACCTTAGGCCAGGTGTT'
p4339
ag3
(g7
S'\x01\x00\x00\x00P!{A'
p4340
tp4341
Rp4342
aa(lp4343
S'TGTTCCGCAGAACGTACTTCTAACG'
p4344
ag3
(g7
S'\x00\x00\x00\x00zDdA'
p4345
tp4346
Rp4347
aa(lp4348
S'ACCAGTCGCAATCTTATCATGGGGA'
p4349
ag3
(g7
S'\xff\xff\xff\xff_ZXA'
p4350
tp4351
Rp4352
aa(lp4353
S'GGCGAGTCGATCATGTACGTTACAG'
p4354
ag3
(g7
S'\x00\x00\x00\x00\xff1pA'
p4355
tp4356
Rp4357
aa(lp4358
S'CACTCTGACAGGTAGTCCCGTTTGT'
p4359
ag3
(g7
S'\x00\x00\x00\x00\x81FpA'
p4360
tp4361
Rp4362
aa(lp4363
S'GTGGCGTCGATGTCTACTTAAACGA'
p4364
ag3
(g7
S'\x00\x00\x00\x00\x90\xb1]A'
p4365
tp4366
Rp4367
aa(lp4368
S'ATTCGGATTGTGGGCTGAGGATCAG'
p4369
ag3
(g7
S'\x00\x00\x00\x80\xd2\x1c\x83A'
p4370
tp4371
Rp4372
aa(lp4373
S'CGTACTGGTATACCCCTCACGAAGC'
p4374
ag3
(g7
S'\x00\x00\x00\x00\x94\x99SA'
p4375
tp4376
Rp4377
aa(lp4378
S'GATATTATCGCGCTGAGCCATAGGC'
p4379
ag3
(g7
S'\x00\x00\x00\x00\x82+qA'
p4380
tp4381
Rp4382
aa(lp4383
S'AACCCCGGAAGGGAAAGGTCCATAA'
p4384
ag3
(g7
S'\x00\x00\x00\x00&\x93~A'
p4385
tp4386
Rp4387
aa(lp4388
S'GATATTTTAAGTGCGGCAACGCCTG'
p4389
ag3
(g7
S'\x00\x00\x00\x00\xc3v{A'
p4390
tp4391
Rp4392
aa(lp4393
S'ATATCAACGTCTCCATGAATGGCGC'
p4394
ag3
(g7
S'\x00\x00\x00\x00\x96\xcexA'
p4395
tp4396
Rp4397
aa(lp4398
S'TAGCGGACCGACTGAAAAGTTGTAC'
p4399
ag3
(g7
S'\xff\xff\xff\xff\x16\x93tA'
p4400
tp4401
Rp4402
aa(lp4403
S'AGACCAGAGACCTTAGAAGGCGGAA'
p4404
ag3
(g7
S'\x00\x00\x00\x00\x8aSxA'
p4405
tp4406
Rp4407
aa(lp4408
S'CTCATTGCAGTCACGGTCAGAACAG'
p4409
ag3
(g7
S'\x00\x00\x00\x00o\xae\x84A'
p4410
tp4411
Rp4412
aa(lp4413
S'GACTGCTTGTAAGGCCTGTGATTCG'
p4414
ag3
(g7
S'\x00\x00\x00\x006\xcc{A'
p4415
tp4416
Rp4417
aa(lp4418
S'GGCATCGGGGATTTCTAATTCGACG'
p4419
ag3
(g7
S'\x00\x00\x00\x00\x94\xda]A'
p4420
tp4421
Rp4422
aa(lp4423
S'AGGTCAGACTTTGCCTCCAGTTTGA'
p4424
ag3
(g7
S'\xff\xff\xff\xffs\x92\\A'
p4425
tp4426
Rp4427
aa(lp4428
S'AAGACTGCACAATTCCCCCCGATAC'
p4429
ag3
(g7
S'\x00\x00\x00\x00\xb3\xd2\x8aA'
p4430
tp4431
Rp4432
aa(lp4433
S'TTTGCGTGACTACGTATGGGCTTTG'
p4434
ag3
(g7
S'\x00\x00\x00\x00\xda\xb1\x84A'
p4435
tp4436
Rp4437
aa(lp4438
S'TATTCGAAATTCAAACGTCACCGCC'
p4439
ag3
(g7
S'\x00\x00\x00\x00\xc2\xbbsA'
p4440
tp4441
Rp4442
aa(lp4443
S'TCACTCCTGTACCTCACACTTTCGG'
p4444
ag3
(g7
S'\x00\x00\x00\x00\xcdQ\x83A'
p4445
tp4446
Rp4447
aa(lp4448
S'ATGAACTAGCCTATCGCCACTGCAA'
p4449
ag3
(g7
S'\xff\xff\xff\x7fw\xbd\x83A'
p4450
tp4451
Rp4452
aa(lp4453
S'CTATCATCAACCTCGGTCTCCGACC'
p4454
ag3
(g7
S'\x00\x00\x00\x80\xf7\x07\x92A'
p4455
tp4456
Rp4457
aa(lp4458
S'TAACGAGATCACTCCTCTGTGTCGA'
p4459
ag3
(g7
S'\xab\xaa\xaa\xaa\xda\x917A'
p4460
tp4461
Rp4462
aa(lp4463
S'CCCGTACGCCAATGACCCTAATACT'
p4464
ag3
(g7
S'\x00\x00\x00\x00C,\x8dA'
p4465
tp4466
Rp4467
aa(lp4468
S'AGCTGTGTAAAGAGATGGGCATGGA'
p4469
ag3
(g7
S'\x00\x00\x00\x00\xb1\xde\x7fA'
p4470
tp4471
Rp4472
aa(lp4473
S'CCAGGTCTGTCTCTAGGGCGACTAT'
p4474
ag3
(g7
S'\x00\x00\x00\x00,\xdabA'
p4475
tp4476
Rp4477
aa(lp4478
S'CTAGTAAAGACCCAGGCAGGCACTC'
p4479
ag3
(g7
S'\x00\x00\x00\x00\xc5\xffrA'
p4480
tp4481
Rp4482
aa(lp4483
S'CCGCATCATAGCATGAGGCACATAG'
p4484
ag3
(g7
S'\x00\x00\x00\x008UcA'
p4485
tp4486
Rp4487
aa(lp4488
S'GTATCTGGTTGTCGCGGTTGATCAG'
p4489
ag3
(g7
S'\xff\xff\xff\xff\x9fUnA'
p4490
tp4491
Rp4492
aa(lp4493
S'AGATCTGACGGGAACGCATAGTCTC'
p4494
ag3
(g7
S'\x01\x00\x00\x00@\xe8]A'
p4495
tp4496
Rp4497
aa(lp4498
S'ACACTATTGCCAAGCCCCACTGTAA'
p4499
ag3
(g7
S'\x00\x00\x00\x00(\xb1bA'
p4500
tp4501
Rp4502
aa(lp4503
S'GGTACATTACCGTGCCCACTGTAGA'
p4504
ag3
(g7
S'\x00\x00\x00\x00\xa6\x07fA'
p4505
tp4506
Rp4507
aa(lp4508
S'TCGGTAGCGAACTCCGTAGACTAAG'
p4509
ag3
(g7
S'\xff\xff\xff\xff\x93ojA'
p4510
tp4511
Rp4512
aa(lp4513
S'TCAAGTTATAGATATCGGGGCCCGC'
p4514
ag3
(g7
S'\x00\x00\x00\x00Q\xc5\x81A'
p4515
tp4516
Rp4517
aa(lp4518
S'TGCAAAGTTTTCGAGTAGCAACGTG'
p4519
ag3
(g7
S'\x00\x00\x00\x00h\xachA'
p4520
tp4521
Rp4522
aa(lp4523
S'CGATGCGGTTTTGAGCCTTTATCCT'
p4524
ag3
(g7
S'\x00\x00\x00\x00\xeeTlA'
p4525
tp4526
Rp4527
aa(lp4528
S'TCGTGACAGATAGACAGACGACTGG'
p4529
ag3
(g7
S'\x00\x00\x00\x00\xdaFqA'
p4530
tp4531
Rp4532
aa(lp4533
S'TAGCTTTAGTTACTGATCGCTGGCG'
p4534
ag3
(g7
S'\xff\xff\xff\xff\x1f\xcaeA'
p4535
tp4536
Rp4537
aa(lp4538
S'GACCGAGATTGTAGGACTTGTCGGA'
p4539
ag3
(g7
S'\xf0\x0b\x0e\x98g\x01\xb8@'
p4540
tp4541
Rp4542
aa(lp4543
S'CGACACGGATAATAACGGAATGGGC'
p4544
ag3
(g7
S'\x00\x00\x00\x80\xb9\x17\x88A'
p4545
tp4546
Rp4547
aa(lp4548
S'ATTCTTAAGTCGAGCGTCCTGGGAC'
p4549
ag3
(g7
S'\x00\x00\x00\x0067oA'
p4550
tp4551
Rp4552
aa(lp4553
S'TAAATTCTGGGATGTCGCCGTTGTT'
p4554
ag3
(g7
S'\x00\x00\x00\x80\x93\xdc\x84A'
p4555
tp4556
Rp4557
aa(lp4558
S'AGTATTGCAGCCAACCCTCTTCGAT'
p4559
ag3
(g7
S'\x00\x00\x00\x00\x93\xb4rA'
p4560
tp4561
Rp4562
aa(lp4563
S'TTCTTCATGAATGCGTTGCTGACCA'
p4564
ag3
(g7
S'\x00\x00\x00\x00.9qA'
p4565
tp4566
Rp4567
aa(lp4568
S'CCAGCCCTTTTGGAAAGCACAACTT'
p4569
ag3
(g7
S'\xff\xff\xff\xffM\xc2lA'
p4570
tp4571
Rp4572
aa(lp4573
S'CTGCTTCATCAAGCATCTTCCCGAC'
p4574
ag3
(g7
S'\x00\x00\x00\x00\x89\x03tA'
p4575
tp4576
Rp4577
aa(lp4578
S'CCTCGTCACGATTCCTACCATCAGT'
p4579
ag3
(g7
S'\x00\x00\x00\x00\x969|A'
p4580
tp4581
Rp4582
aa(lp4583
S'AACCGAGACTCAGAGGATCCTTGGA'
p4584
ag3
(g7
S'\xe38\x8e\xe3h\xa5=A'
p4585
tp4586
Rp4587
aa(lp4588
S'CTGACGCCATGATAAGTGAATGGCA'
p4589
ag3
(g7
S'\x00\x00\x00\x00\xa0\xa9PA'
p4590
tp4591
Rp4592
aa(lp4593
S'GACCAAGTGCCAGGCCACTATTACT'
p4594
ag3
(g7
S'\x00\x00\x00\x00!DsA'
p4595
tp4596
Rp4597
aa(lp4598
S'GGTCAGTCTTGCACCCTGGAATCTA'
p4599
ag3
(g7
S'\x00\x00\x00\x00\x9c\x80pA'
p4600
tp4601
Rp4602
aa(lp4603
S'CTCTATAGCCACTCTGCAAGGACCG'
p4604
ag3
(g7
S'\x00\x00\x00\x80\xcfm\x80A'
p4605
tp4606
Rp4607
aa(lp4608
S'CAATCAGCGTCCCCACTTTTTCGAT'
p4609
ag3
(g7
S'\x00\x00\x00\x00\xd0\xd6lA'
p4610
tp4611
Rp4612
aa(lp4613
S'GTGGAACCGACGGTAAATGTTCCAC'
p4614
ag3
(g7
S'\x8b\x07{\xb6\r\x9dZ@'
p4615
tp4616
Rp4617
aa(lp4618
S'CTCGTGCTCTCCTGATGACTCAAGT'
p4619
ag3
(g7
S'\x00\x00\x00\x00\x1ekwA'
p4620
tp4621
Rp4622
aa(lp4623
S'TTTTCCTAGCAGCCCTCTTTTCCCG'
p4624
ag3
(g7
S'\x00\x00\x00\xc0\x17\xf9\xa0A'
p4625
tp4626
Rp4627
aa(lp4628
S'AAGAGCAAGGCTCCAGCACTTAGAC'
p4629
ag3
(g7
S'\x00\x00\x00\x00$\xf3eA'
p4630
tp4631
Rp4632
aa(lp4633
S'TGACGCCCAAAAAGGCTTTTCTGAA'
p4634
ag3
(g7
S'\x00\x00\x00\x00\x14%lA'
p4635
tp4636
Rp4637
aa(lp4638
S'CAAGCCCATGATATGACCGGAATGC'
p4639
ag3
(g7
S'\x00\x00\x00\x00\xb2XmA'
p4640
tp4641
Rp4642
aa(lp4643
S'TCTTCATGAAAGTAGTTGCGCGTCT'
p4644
ag3
(g7
S'\x00\x00\x00\x00%\x02pA'
p4645
tp4646
Rp4647
aa(lp4648
S'TAGTGGTAAGGCCGCTGGCTATTAA'
p4649
ag3
(g7
S'\x00\x00\x00\x00\xbehjA'
p4650
tp4651
Rp4652
aa(lp4653
S'ACCACGGAGGTGTAATGGTGATTCA'
p4654
ag3
(g7
S'\x00\x00\x00\x00\x8e\xa6aA'
p4655
tp4656
Rp4657
aa(lp4658
S'GAATGAGTACGAATGCGTCTGCCTA'
p4659
ag3
(g7
S'\x00\x00\x00\x00\xc0\xf1\x81A'
p4660
tp4661
Rp4662
aa(lp4663
S'ATGACTTCGTTGTAGGGTACCACGG'
p4664
ag3
(g7
S'\x01\x00\x00\x00\xa8\xd1gA'
p4665
tp4666
Rp4667
aa(lp4668
S'GCCACTTGGAGCGAAATACCATCTG'
p4669
ag3
(g7
S'\x00\x00\x00\x00\xc0\x9doA'
p4670
tp4671
Rp4672
aa(lp4673
S'ACGTTACGAAATGGCTAGAACAGGC'
p4674
ag3
(g7
S'\xff\xff\xff\xff9\x8ahA'
p4675
tp4676
Rp4677
aa(lp4678
S'GCTTCTGTGTTTTCACCTTGTGGGG'
p4679
ag3
(g7
S'\x00\x00\x00\x8098\x8dA'
p4680
tp4681
Rp4682
aa(lp4683
S'CTCAGAGGGGTAGACCTAAAAGCGC'
p4684
ag3
(g7
S'\x00\x00\x00\x80\x9fW\x85A'
p4685
tp4686
Rp4687
aa(lp4688
S'AACACCTCAGGACGCATTTAGACCA'
p4689
ag3
(g7
S'\xff\xff\xff\x7f\x94V\x82A'
p4690
tp4691
Rp4692
aa(lp4693
S'TAACCGTTGTATGCATCACTGGAGC'
p4694
ag3
(g7
S'\xff\xff\xff\xff\xc9\rdA'
p4695
tp4696
Rp4697
aa(lp4698
S'ACCCTAGGGGATGACCCTGAGGTAA'
p4699
ag3
(g7
S'|\t\xed%4\xd3\x1eA'
p4700
tp4701
Rp4702
aa(lp4703
S'GGTGGGGGACCATAGTATCCCACTC'
p4704
ag3
(g7
S'\x8d\x1eQA\xb6A\xcd@'
p4705
tp4706
Rp4707
aa(lp4708
S'AGTGCTTCTGGAACTACCTGTCTGC'
p4709
ag3
(g7
S'\x00\x00\x00\x00\x14\xbaxA'
p4710
tp4711
Rp4712
aa(lp4713
S'CCCAGTGGGTGTTGTAGTCGTGTAA'
p4714
ag3
(g7
S'\x00\x00\x00\x00\xf5\x80\x91A'
p4715
tp4716
Rp4717
aa(lp4718
S'GGCATTAGGCAACATTAGAGGCTGC'
p4719
ag3
(g7
S'\x00\x00\x00\x00\xce\x0ckA'
p4720
tp4721
Rp4722
aa(lp4723
S'ATGAGGCGTATTTATGCTGCTCACG'
p4724
ag3
(g7
S'\x00\x00\x00\x000\x03CA'
p4725
tp4726
Rp4727
aa(lp4728
S'TGAAGATGTCAAAGGACTCAAGCGC'
p4729
ag3
(g7
S'\x01\x00\x00\x00\xb7f~A'
p4730
tp4731
Rp4732
aa(lp4733
S'TAGGTAACTTCAAGGGCCGACTGAG'
p4734
ag3
(g7
S'\x00\x00\x00\x00\xad\trA'
p4735
tp4736
Rp4737
aa(lp4738
S'TTCACGCCCACTGACTAGAGTTCAC'
p4739
ag3
(g7
S'\x01\x00\x00\x80\xd4Q\x88A'
p4740
tp4741
Rp4742
aa(lp4743
S'CACCTTTGGTCATAAACACGTCCGA'
p4744
ag3
(g7
S'\x00\x00\x00\x00\x11\xa0\x82A'
p4745
tp4746
Rp4747
aa(lp4748
S'GATCGTGCACATGGTGATTACTCCG'
p4749
ag3
(g7
S'\x00\x00\x00\x00\x1cw|A'
p4750
tp4751
Rp4752
aa(lp4753
S'AGACTGCAATGGCAAAACAGAGCAA'
p4754
ag3
(g7
S'\x01\x00\x00\x00\xa2srA'
p4755
tp4756
Rp4757
aa(lp4758
S'CAATGTTATCTCGCAGTCGCTCAGT'
p4759
ag3
(g7
S'\x00\x00\x00\x00@\x12wA'
p4760
tp4761
Rp4762
aa(lp4763
S'GCTGGCACAGACTAGTACGTCAGAA'
p4764
ag3
(g7
S'VUUU\x0fFbA'
p4765
tp4766
Rp4767
aa(lp4768
S'TAGAGTGCTTTCCGCGTCATCAAAA'
p4769
ag3
(g7
S'\x00\x00\x00\x00\xfb\xb4}A'
p4770
tp4771
Rp4772
aa(lp4773
S'TAGGCTTACACGACCCTATAGCGAG'
p4774
ag3
(g7
S'\x00\x00\x00\x00\xb0#hA'
p4775
tp4776
Rp4777
aa(lp4778
S'ATGACTCTCGGTTATGACCTGAGCG'
p4779
ag3
(g7
S'\x00\x00\x00\x00\xe4bSA'
p4780
tp4781
Rp4782
aa(lp4783
S'GTTTAGGTTCGCCGAAGCATTGGAA'
p4784
ag3
(g7
S'\x00\x00\x00\x80U\xab\x80A'
p4785
tp4786
Rp4787
aa(lp4788
S'GACCCGATTGGACTAACTACCGACA'
p4789
ag3
(g7
S'\x00\x00\x00\x00JX\x82A'
p4790
tp4791
Rp4792
aa(lp4793
S'ACTATGAGACTTTGCCGCTTGCATA'
p4794
ag3
(g7
S'\x00\x00\x00\x00\x0b\xadpA'
p4795
tp4796
Rp4797
aa(lp4798
S'ACTTCTTGTCGAATTAGGCGAACCG'
p4799
ag3
(g7
S'\x00\x00\x00\x000nfA'
p4800
tp4801
Rp4802
aa(lp4803
S'TCGCGTGATAGTTCTTTCTGTCAGC'
p4804
ag3
(g7
S'\xff\xff\xff\xff\x1f\xa0lA'
p4805
tp4806
Rp4807
aa(lp4808
S'TTACCTGATCTGTCGCGAATGTTGC'
p4809
ag3
(g7
S'\x00\x00\x00\x80\xe4\x1f\x82A'
p4810
tp4811
Rp4812
aa(lp4813
S'TCATAAAGTGAATCACGGCCCATGC'
p4814
ag3
(g7
S'\x00\x00\x00\x00\x94\x99SA'
p4815
tp4816
Rp4817
aa(lp4818
S'GGACCTGACCGTTGTGGTAAGACAT'
p4819
ag3
(g7
S'\xff\xff\xff\xffS\xb5nA'
p4820
tp4821
Rp4822
aa(lp4823
S'CGAGTCATAGACTGGGCTCATGTGT'
p4824
ag3
(g7
S'\x00\x00\x00\x00^%sA'
p4825
tp4826
Rp4827
aa(lp4828
S'TATGACAGCGTGCAGGCTGTTAATT'
p4829
ag3
(g7
S'\x1c\xc7q\x1cg\xf4=A'
p4830
tp4831
Rp4832
aa(lp4833
S'TGAACATTAGTCTTAGCACCGCGAC'
p4834
ag3
(g7
S'\x00\x00\x00\x00]\x16yA'
p4835
tp4836
Rp4837
aa(lp4838
S'TTAATGGAGGGGAACAGGGAGACGA'
p4839
ag3
(g7
S'\x00\x00\x00\x00\xa3\x99\x9dA'
p4840
tp4841
Rp4842
aa(lp4843
S'ACTTAAAAGCCTATGTGCGCAGACC'
p4844
ag3
(g7
S'\x00\x00\x00\x00\xe7|yA'
p4845
tp4846
Rp4847
aa(lp4848
S'AAGAATGTACCCATGCTCGAGAGGC'
p4849
ag3
(g7
S'\x00\x00\x00\x00\xbc\x9exA'
p4850
tp4851
Rp4852
aa(lp4853
S'AAAAGTTGACGTGACCACGAACGAT'
p4854
ag3
(g7
S'\x00\x00\x00\x00\xcclrA'
p4855
tp4856
Rp4857
aa(lp4858
S'GAACATATCGGAGTCGTGCGGATTA'
p4859
ag3
(g7
S'\x00\x00\x00\x00\xe48zA'
p4860
tp4861
Rp4862
aa(lp4863
S'TGGTCCCTTAGCGTGTCTAACCAAG'
p4864
ag3
(g7
S'\xaa\xaa\xaa\xaaz$7A'
p4865
tp4866
Rp4867
aa(lp4868
S'AATCTGCTCACTCGAGTGGCTGATA'
p4869
ag3
(g7
S'\x00\x00\x00\x00\x00\x17\x11A'
p4870
tp4871
Rp4872
aa(lp4873
S'GTGCCGATAGCATTTGGATTGCCTT'
p4874
ag3
(g7
S'\xaa\xaa\xaa\xaa\xba\xb4YA'
p4875
tp4876
Rp4877
aa(lp4878
S'TGTTTAACAGCAAGAAGCCCATCCG'
p4879
ag3
(g7
S'\xff\xff\xff\xff"\xe4{A'
p4880
tp4881
Rp4882
aa(lp4883
S'CGGGCGATCACTTATTCCGATTTCC'
p4884
ag3
(g7
S'\x00\x00\x00\x00\xb2\xediA'
p4885
tp4886
Rp4887
aa(lp4888
S'TGACAGCCAATACCAATGGACCTCC'
p4889
ag3
(g7
S'\x00\x00\x00\x00HdwA'
p4890
tp4891
Rp4892
aa(lp4893
S'AGGGTTGATGAATCAGACGGTTGGA'
p4894
ag3
(g7
S'\x00\x00\x00\x00\xcd\x92\x8dA'
p4895
tp4896
Rp4897
aa(lp4898
S'GTTCACTCGGTTCAACGGGAAATGT'
p4899
ag3
(g7
S'\x01\x00\x00\x00\x82\x96dA'
p4900
tp4901
Rp4902
aa(lp4903
S'CTGGTCAGTCCCAATAACCGTGAGT'
p4904
ag3
(g7
S'\x00\x00\x00\x00\xacekA'
p4905
tp4906
Rp4907
aa(lp4908
S'TGCTGAGGCAATTTTCCAGAAGAGC'
p4909
ag3
(g7
S'\x00\x00\x00\x00>\x89oA'
p4910
tp4911
Rp4912
aa(lp4913
S'GTGACGATCGGTTTCGATTCCTCTG'
p4914
ag3
(g7
S'UUUU\xc9-QA'
p4915
tp4916
Rp4917
aa(lp4918
S'GCTTTGTTCTGAGCTTCGGGATGTA'
p4919
ag3
(g7
S'\x00\x00\x00\x00{\xbe\x81A'
p4920
tp4921
Rp4922
aa(lp4923
S'CTCCCGCTATATTGCTCTCGCTAGT'
p4924
ag3
(g7
S'\x00\x00\x00\x00c\t{A'
p4925
tp4926
Rp4927
aa(lp4928
S'TTTGTCCCGGCGCATGCATATTTAA'
p4929
ag3
(g7
S'\xff\xff\xff\xff8\x10\x8bA'
p4930
tp4931
Rp4932
aa(lp4933
S'TTCGCCTGCGAACTGTGATAATGTC'
p4934
ag3
(g7
S'\x01\x00\x00\x00JXrA'
p4935
tp4936
Rp4937
aa(lp4938
S'CCGGACCCTAAACAGCCTACAACAT'
p4939
ag3
(g7
S'\x00\x00\x00@->\x98A'
p4940
tp4941
Rp4942
aa(lp4943
S'AACAGGGTTGAGCATATGGATCCGG'
p4944
ag3
(g7
S'\xff\xff\xff\xffD\x8b{A'
p4945
tp4946
Rp4947
aa(lp4948
S'AACGTGCTTCTGAGAACGCATTGAA'
p4949
ag3
(g7
S'\x00\x00\x00\x00\x1ekgA'
p4950
tp4951
Rp4952
aa(lp4953
S'AGTATGTCATGACCGGTCGAAGCTT'
p4954
ag3
(g7
S'\x00\x00\x00\x005R~A'
p4955
tp4956
Rp4957
aa(lp4958
S'GTTGCGGATTATCGTCGTATCGGTT'
p4959
ag3
(g7
S'\x00\x00\x00\x00o\x84{A'
p4960
tp4961
Rp4962
aa(lp4963
S'ACCTCAATCGCGAATTACACTGCTA'
p4964
ag3
(g7
S'\x00\x00\x00\x804\xe9\x81A'
p4965
tp4966
Rp4967
aa(lp4968
S'GCACGTATAAGCTACGATGCGTCTT'
p4969
ag3
(g7
S'\x00\x00\x00\x00&RdA'
p4970
tp4971
Rp4972
aa(lp4973
S'CTTAACACCTTCCGCGACACACAAA'
p4974
ag3
(g7
S'\x00\x00\x00\x80*\x0e\x9aA'
p4975
tp4976
Rp4977
aa(lp4978
S'GTAACCTTATGCCGTTCCCGCATAC'
p4979
ag3
(g7
S'\x00\x00\x00\x00\xa6\xddlA'
p4980
tp4981
Rp4982
aa(lp4983
S'GATACAAGCGACTGCCCAGTAGACT'
p4984
ag3
(g7
S'\xff\xff\xff\xff\x80\x1cwA'
p4985
tp4986
Rp4987
aa(lp4988
S'TAACTTTTCGGAACACACTAGGGCG'
p4989
ag3
(g7
S'\x00\x00\x00\x80\xb3$\x86A'
p4990
tp4991
Rp4992
aa(lp4993
S'AAGATCCAGCACTTGGGACAGCATA'
p4994
ag3
(g7
S'\x00\x00\x00\x00s\xad{A'
p4995
tp4996
Rp4997
aa(lp4998
S'CCACTCAGGTGCTACCGTAGGAAAG'
p4999
ag3
(g7
S'UUUU!\x8a[A'
p5000
tp5001
Rp5002
aa(lp5003
S'AGGTGCCACTTCCTCCATTGATTGT'
p5004
ag3
(g7
S'\x00\x00\x00\x00^%cA'
p5005
tp5006
Rp5007
aa.