(lp0
(lp1
S'TTCGTTTTTTTTTTTTTTTTC'
p2
acnumpy.core.multiarray
scalar
p3
(cnumpy
dtype
p4
(S'f8'
p5
I0
I1
tp6
Rp7
(I3
S'<'
p8
NNNI-1
I-1
I0
tp9
bS'\x00\x00\x00P\x88\xe2\xb7A'
p10
tp11
Rp12
aa(lp13
S'CACTTGGTTTTTTTTACCAAG'
p14
ag3
(g7
S'\xcd\x0f\x8b\x94\x81\xe7\xa2@'
p15
tp16
Rp17
aa(lp18
S'ACTCTGTCTTTTTTTTAGACC'
p19
ag3
(g7
S'\x00\x00\x00\x00@\xe8]A'
p20
tp21
Rp22
aa(lp23
S'TTTTTGTTATTTTTTTAACTC'
p24
ag3
(g7
S'\x00\x00\x00\x00\x1c6bA'
p25
tp26
Rp27
aa(lp28
S'TTTTGCATTTTTTTGCAAAAA'
p29
ag3
(g7
S'\xe4n&\xc7\x10\x12\x91@'
p30
tp31
Rp32
aa(lp33
S'AAACGGTGTTTTTTTACACCG'
p34
ag3
(g7
S'\x11\xc1,e\x7f\xdf{@'
p35
tp36
Rp37
aa(lp38
S'TTTTCTTTTTTTTTTTTTTGA'
p39
ag3
(g7
S'\x00\x00\x00\xa0\xbfS\xb0A'
p40
tp41
Rp42
aa(lp43
S'TGTTTTTTTTTTTTTTTCATA'
p44
ag3
(g7
S'\xff\xff\xff?\xab\x94\xabA'
p45
tp46
Rp47
aa(lp48
S'CACTTTTATTTTTTTTTTAAA'
p49
ag3
(g7
S'\x00\x00\x00\x80d@\x87A'
p50
tp51
Rp52
aa(lp53
S'ATCAACAGCTTTTGCTGTTCT'
p54
ag3
(g7
S'\xc9\xfb\xeb`\xccz\xc4@'
p55
tp56
Rp57
aa.